
ucos_bcm2837.elf:     file format elf32-littlearm


Disassembly of section .init:

00008000 <_start>:
    8000:	e59ff018 	ldr	pc, [pc, #24]	; 8020 <reset_handler>
    8004:	e59ff018 	ldr	pc, [pc, #24]	; 8024 <undefined_handler>
    8008:	e59ff018 	ldr	pc, [pc, #24]	; 8028 <swi_handler>
    800c:	e59ff018 	ldr	pc, [pc, #24]	; 802c <prefetch_handler>
    8010:	e59ff018 	ldr	pc, [pc, #24]	; 8030 <data_handler>
    8014:	e59ff018 	ldr	pc, [pc, #24]	; 8034 <unused_handler>
    8018:	e59ff018 	ldr	pc, [pc, #24]	; 8038 <irq_handler>
    801c:	e59ff018 	ldr	pc, [pc, #24]	; 803c <fiq_handler>

00008020 <reset_handler>:
    8020:	00008040 	andeq	r8, r0, r0, asr #32

00008024 <undefined_handler>:
    8024:	00010000 	andeq	r0, r1, r0

00008028 <swi_handler>:
    8028:	00010004 	andeq	r0, r1, r4

0000802c <prefetch_handler>:
    802c:	00010008 	andeq	r0, r1, r8

00008030 <data_handler>:
    8030:	0001000c 	andeq	r0, r1, ip

00008034 <unused_handler>:
    8034:	00010010 	andeq	r0, r1, r0, lsl r0

00008038 <irq_handler>:
    8038:	000107a0 	andeq	r0, r1, r0, lsr #15

0000803c <fiq_handler>:
    803c:	00010014 	andeq	r0, r1, r4, lsl r0

00008040 <reset>:
    8040:	e10f0000 	mrs	r0, CPSR
    8044:	e3c0001f 	bic	r0, r0, #31
    8048:	e3800013 	orr	r0, r0, #19
    804c:	e16ff000 	msr	SPSR_fsxc, r0
    8050:	e28f0004 	add	r0, pc, #4
    8054:	e12ef300 	msr	ELR_hyp, r0
    8058:	e160006e 	eret
    805c:	e3a00902 	mov	r0, #32768	; 0x8000
    8060:	e3a01000 	mov	r1, #0
    8064:	e8b003fc 	ldm	r0!, {r2, r3, r4, r5, r6, r7, r8, r9}
    8068:	e8a103fc 	stmia	r1!, {r2, r3, r4, r5, r6, r7, r8, r9}
    806c:	e8b003fc 	ldm	r0!, {r2, r3, r4, r5, r6, r7, r8, r9}
    8070:	e8a103fc 	stmia	r1!, {r2, r3, r4, r5, r6, r7, r8, r9}
    8074:	e3a000d2 	mov	r0, #210	; 0xd2
    8078:	e121f000 	msr	CPSR_c, r0
    807c:	e3a0d902 	mov	sp, #32768	; 0x8000
    8080:	e3a000d1 	mov	r0, #209	; 0xd1
    8084:	e121f000 	msr	CPSR_c, r0
    8088:	e3a0d901 	mov	sp, #16384	; 0x4000
    808c:	e3a000d3 	mov	r0, #211	; 0xd3
    8090:	e121f000 	msr	CPSR_c, r0
    8094:	e3a0d302 	mov	sp, #134217728	; 0x8000000
    8098:	e59f0018 	ldr	r0, [pc, #24]	; 80b8 <zero_loop+0x14>
    809c:	e59f1018 	ldr	r1, [pc, #24]	; 80bc <zero_loop+0x18>
    80a0:	e3a02000 	mov	r2, #0

000080a4 <zero_loop>:
    80a4:	e1500001 	cmp	r0, r1
    80a8:	b4802004 	strlt	r2, [r0], #4
    80ac:	bafffffc 	blt	80a4 <zero_loop>
    80b0:	eb002148 	bl	105d8 <DisableInterrupts>
    80b4:	ea003218 	b	1491c <main>
    80b8:	00014994 	muleq	r1, r4, r9
    80bc:	00014994 	muleq	r1, r4, r9

Disassembly of section .text:

00010000 <undefined_instruction>:
   10000:	eafffffe 	b	10000 <undefined_instruction>

00010004 <swi>:
   10004:	eafffffe 	b	10004 <swi>

00010008 <prefetch_abort>:
   10008:	eafffffe 	b	10008 <prefetch_abort>

0001000c <data_abort>:
   1000c:	eafffffe 	b	1000c <data_abort>

00010010 <unused>:
   10010:	eafffffe 	b	10010 <unused>

00010014 <fiq>:
   10014:	eafffffe 	b	10014 <fiq>

00010018 <hang>:
   10018:	eafffffe 	b	10018 <hang>

0001001c <PUT32>:
   1001c:	e5801000 	str	r1, [r0]
   10020:	e12fff1e 	bx	lr

00010024 <GET32>:
   10024:	e5900000 	ldr	r0, [r0]
   10028:	e12fff1e 	bx	lr

0001002c <dummy>:
   1002c:	e12fff1e 	bx	lr

00010030 <uart_irq_handler>:
   10030:	e3050048 	movw	r0, #20552	; 0x5048
   10034:	e92d4008 	push	{r3, lr}
   10038:	e3430f21 	movt	r0, #16161	; 0x3f21
   1003c:	ebfffff8 	bl	10024 <GET32>
   10040:	e3100001 	tst	r0, #1
   10044:	18bd8008 	popne	{r3, pc}
   10048:	e2000006 	and	r0, r0, #6
   1004c:	e3500004 	cmp	r0, #4
   10050:	18bd8008 	popne	{r3, pc}
   10054:	e3050040 	movw	r0, #20544	; 0x5040
   10058:	e3430f21 	movt	r0, #16161	; 0x3f21
   1005c:	ebfffff0 	bl	10024 <GET32>
   10060:	e3043994 	movw	r3, #18836	; 0x4994
   10064:	e3403001 	movt	r3, #1
   10068:	e304299c 	movw	r2, #18844	; 0x499c
   1006c:	e3402001 	movt	r2, #1
   10070:	e6ef0070 	uxtb	r0, r0
   10074:	e5931000 	ldr	r1, [r3]
   10078:	e7c20001 	strb	r0, [r2, r1]
   1007c:	e5932000 	ldr	r2, [r3]
   10080:	e2822001 	add	r2, r2, #1
   10084:	e7eb2052 	ubfx	r2, r2, #0, #12
   10088:	e5832000 	str	r2, [r3]
   1008c:	e8bd8008 	pop	{r3, pc}

00010090 <uart_lcr>:
   10090:	e3050054 	movw	r0, #20564	; 0x5054
   10094:	e3430f21 	movt	r0, #16161	; 0x3f21
   10098:	eaffffe1 	b	10024 <GET32>

0001009c <uart_recv>:
   1009c:	e92d4008 	push	{r3, lr}
   100a0:	e3050054 	movw	r0, #20564	; 0x5054
   100a4:	e3430f21 	movt	r0, #16161	; 0x3f21
   100a8:	ebffffdd 	bl	10024 <GET32>
   100ac:	e3100001 	tst	r0, #1
   100b0:	0afffffa 	beq	100a0 <uart_recv+0x4>
   100b4:	e3050040 	movw	r0, #20544	; 0x5040
   100b8:	e3430f21 	movt	r0, #16161	; 0x3f21
   100bc:	ebffffd8 	bl	10024 <GET32>
   100c0:	e6ef0070 	uxtb	r0, r0
   100c4:	e8bd8008 	pop	{r3, pc}

000100c8 <uart_send>:
   100c8:	e92d4010 	push	{r4, lr}
   100cc:	e1a04000 	mov	r4, r0
   100d0:	e3050054 	movw	r0, #20564	; 0x5054
   100d4:	e3430f21 	movt	r0, #16161	; 0x3f21
   100d8:	ebffffd1 	bl	10024 <GET32>
   100dc:	e3100020 	tst	r0, #32
   100e0:	0afffffa 	beq	100d0 <uart_send+0x8>
   100e4:	e3050040 	movw	r0, #20544	; 0x5040
   100e8:	e1a01004 	mov	r1, r4
   100ec:	e3430f21 	movt	r0, #16161	; 0x3f21
   100f0:	e8bd4010 	pop	{r4, lr}
   100f4:	eaffffc8 	b	1001c <PUT32>

000100f8 <uart_flush>:
   100f8:	e92d4008 	push	{r3, lr}
   100fc:	e3050054 	movw	r0, #20564	; 0x5054
   10100:	e3430f21 	movt	r0, #16161	; 0x3f21
   10104:	ebffffc6 	bl	10024 <GET32>
   10108:	e3100c01 	tst	r0, #256	; 0x100
   1010c:	1afffffa 	bne	100fc <uart_flush+0x4>
   10110:	e8bd8008 	pop	{r3, pc}

00010114 <hexstrings>:
   10114:	e92d4038 	push	{r3, r4, r5, lr}
   10118:	e1a05000 	mov	r5, r0
   1011c:	e3a04020 	mov	r4, #32
   10120:	e2444004 	sub	r4, r4, #4
   10124:	e1a03435 	lsr	r3, r5, r4
   10128:	e203300f 	and	r3, r3, #15
   1012c:	e3530009 	cmp	r3, #9
   10130:	e2830030 	add	r0, r3, #48	; 0x30
   10134:	82830037 	addhi	r0, r3, #55	; 0x37
   10138:	ebffffe2 	bl	100c8 <uart_send>
   1013c:	e3540000 	cmp	r4, #0
   10140:	1afffff6 	bne	10120 <hexstrings+0xc>
   10144:	e3a00020 	mov	r0, #32
   10148:	e8bd4038 	pop	{r3, r4, r5, lr}
   1014c:	eaffffdd 	b	100c8 <uart_send>

00010150 <hexstring>:
   10150:	e92d4008 	push	{r3, lr}
   10154:	ebffffee 	bl	10114 <hexstrings>
   10158:	e3a0000d 	mov	r0, #13
   1015c:	ebffffd9 	bl	100c8 <uart_send>
   10160:	e3a0000a 	mov	r0, #10
   10164:	e8bd4008 	pop	{r3, lr}
   10168:	eaffffd6 	b	100c8 <uart_send>

0001016c <uart_init>:
   1016c:	e3050004 	movw	r0, #20484	; 0x5004
   10170:	e3a01001 	mov	r1, #1
   10174:	e92d4010 	push	{r4, lr}
   10178:	e3430f21 	movt	r0, #16161	; 0x3f21
   1017c:	e3a04000 	mov	r4, #0
   10180:	ebffffa5 	bl	1001c <PUT32>
   10184:	e3050044 	movw	r0, #20548	; 0x5044
   10188:	e3430f21 	movt	r0, #16161	; 0x3f21
   1018c:	e1a01004 	mov	r1, r4
   10190:	ebffffa1 	bl	1001c <PUT32>
   10194:	e3050060 	movw	r0, #20576	; 0x5060
   10198:	e3430f21 	movt	r0, #16161	; 0x3f21
   1019c:	e1a01004 	mov	r1, r4
   101a0:	ebffff9d 	bl	1001c <PUT32>
   101a4:	e305004c 	movw	r0, #20556	; 0x504c
   101a8:	e3430f21 	movt	r0, #16161	; 0x3f21
   101ac:	e3a01003 	mov	r1, #3
   101b0:	ebffff99 	bl	1001c <PUT32>
   101b4:	e3050050 	movw	r0, #20560	; 0x5050
   101b8:	e3430f21 	movt	r0, #16161	; 0x3f21
   101bc:	e1a01004 	mov	r1, r4
   101c0:	ebffff95 	bl	1001c <PUT32>
   101c4:	e3050044 	movw	r0, #20548	; 0x5044
   101c8:	e3430f21 	movt	r0, #16161	; 0x3f21
   101cc:	e3a01005 	mov	r1, #5
   101d0:	ebffff91 	bl	1001c <PUT32>
   101d4:	e3050048 	movw	r0, #20552	; 0x5048
   101d8:	e3430f21 	movt	r0, #16161	; 0x3f21
   101dc:	e3a010c6 	mov	r1, #198	; 0xc6
   101e0:	ebffff8d 	bl	1001c <PUT32>
   101e4:	e3050068 	movw	r0, #20584	; 0x5068
   101e8:	e300110e 	movw	r1, #270	; 0x10e
   101ec:	e3430f21 	movt	r0, #16161	; 0x3f21
   101f0:	ebffff89 	bl	1001c <PUT32>
   101f4:	e3a00004 	mov	r0, #4
   101f8:	e3430f20 	movt	r0, #16160	; 0x3f20
   101fc:	ebffff88 	bl	10024 <GET32>
   10200:	e3c01a3f 	bic	r1, r0, #258048	; 0x3f000
   10204:	e3a00004 	mov	r0, #4
   10208:	e3811a12 	orr	r1, r1, #73728	; 0x12000
   1020c:	e3430f20 	movt	r0, #16160	; 0x3f20
   10210:	ebffff81 	bl	1001c <PUT32>
   10214:	e3a00094 	mov	r0, #148	; 0x94
   10218:	e3430f20 	movt	r0, #16160	; 0x3f20
   1021c:	e1a01004 	mov	r1, r4
   10220:	ebffff7d 	bl	1001c <PUT32>
   10224:	e1a00004 	mov	r0, r4
   10228:	e2844001 	add	r4, r4, #1
   1022c:	ebffff7e 	bl	1002c <dummy>
   10230:	e3540096 	cmp	r4, #150	; 0x96
   10234:	1afffffa 	bne	10224 <uart_init+0xb8>
   10238:	e3a00098 	mov	r0, #152	; 0x98
   1023c:	e3a01903 	mov	r1, #49152	; 0xc000
   10240:	e3430f20 	movt	r0, #16160	; 0x3f20
   10244:	e3a04000 	mov	r4, #0
   10248:	ebffff73 	bl	1001c <PUT32>
   1024c:	e1a00004 	mov	r0, r4
   10250:	e2844001 	add	r4, r4, #1
   10254:	ebffff74 	bl	1002c <dummy>
   10258:	e3540096 	cmp	r4, #150	; 0x96
   1025c:	1afffffa 	bne	1024c <uart_init+0xe0>
   10260:	e3a00098 	mov	r0, #152	; 0x98
   10264:	e3a01000 	mov	r1, #0
   10268:	e3430f20 	movt	r0, #16160	; 0x3f20
   1026c:	ebffff6a 	bl	1001c <PUT32>
   10270:	e3050060 	movw	r0, #20576	; 0x5060
   10274:	e3430f21 	movt	r0, #16161	; 0x3f21
   10278:	e3a01003 	mov	r1, #3
   1027c:	ebffff66 	bl	1001c <PUT32>
   10280:	e3a0001d 	mov	r0, #29
   10284:	eb0000ae 	bl	10544 <DisableInterrupt>
   10288:	e305399c 	movw	r3, #22940	; 0x599c
   1028c:	e3403001 	movt	r3, #1
   10290:	e3002030 	movw	r2, #48	; 0x30
   10294:	e3402001 	movt	r2, #1
   10298:	e3a0001d 	mov	r0, #29
   1029c:	e8bd4010 	pop	{r4, lr}
   102a0:	e58320e8 	str	r2, [r3, #232]	; 0xe8
   102a4:	ea000088 	b	104cc <EnableInterrupt>

000102a8 <uart_string>:
   102a8:	e92d4010 	push	{r4, lr}
   102ac:	e1a04000 	mov	r4, r0
   102b0:	e5d00000 	ldrb	r0, [r0]
   102b4:	e3500000 	cmp	r0, #0
   102b8:	0a000003 	beq	102cc <uart_string+0x24>
   102bc:	ebffff81 	bl	100c8 <uart_send>
   102c0:	e5f40001 	ldrb	r0, [r4, #1]!
   102c4:	e3500000 	cmp	r0, #0
   102c8:	1afffffb 	bne	102bc <uart_string+0x14>
   102cc:	e3a0000d 	mov	r0, #13
   102d0:	ebffff7c 	bl	100c8 <uart_send>
   102d4:	e3a0000a 	mov	r0, #10
   102d8:	e8bd4010 	pop	{r4, lr}
   102dc:	eaffff79 	b	100c8 <uart_send>

000102e0 <tickISR>:
   102e0:	e92d4008 	push	{r3, lr}
   102e4:	eb00027b 	bl	10cd8 <OSTimeTick>
   102e8:	e3a03b2d 	mov	r3, #46080	; 0xb400
   102ec:	e3433f00 	movt	r3, #16128	; 0x3f00
   102f0:	e3a02000 	mov	r2, #0
   102f4:	e583200c 	str	r2, [r3, #12]
   102f8:	e8bd8008 	pop	{r3, pc}

000102fc <timer_init>:
   102fc:	e92d4008 	push	{r3, lr}
   10300:	e3a00040 	mov	r0, #64	; 0x40
   10304:	eb00008e 	bl	10544 <DisableInterrupt>
   10308:	e305299c 	movw	r2, #22940	; 0x599c
   1030c:	e3a03b2d 	mov	r3, #46080	; 0xb400
   10310:	e3402001 	movt	r2, #1
   10314:	e3433f00 	movt	r3, #16128	; 0x3f00
   10318:	e30012e0 	movw	r1, #736	; 0x2e0
   1031c:	e3a0c0a2 	mov	ip, #162	; 0xa2
   10320:	e3401001 	movt	r1, #1
   10324:	e3a0083e 	mov	r0, #4063232	; 0x3e0000
   10328:	e5821200 	str	r1, [r2, #512]	; 0x200
   1032c:	e340c03e 	movt	ip, #62	; 0x3e
   10330:	e5830008 	str	r0, [r3, #8]
   10334:	e302270f 	movw	r2, #9999	; 0x270f
   10338:	e3a000f9 	mov	r0, #249	; 0xf9
   1033c:	e5832000 	str	r2, [r3]
   10340:	e3a01000 	mov	r1, #0
   10344:	e5832018 	str	r2, [r3, #24]
   10348:	e583001c 	str	r0, [r3, #28]
   1034c:	e3a00040 	mov	r0, #64	; 0x40
   10350:	e583100c 	str	r1, [r3, #12]
   10354:	e583c008 	str	ip, [r3, #8]
   10358:	e8bd4008 	pop	{r3, lr}
   1035c:	ea00005a 	b	104cc <EnableInterrupt>

00010360 <handleRange>:
   10360:	e92d41f0 	push	{r4, r5, r6, r7, r8, lr}
   10364:	e2504000 	subs	r4, r0, #0
   10368:	08bd81f0 	popeq	{r4, r5, r6, r7, r8, pc}
   1036c:	e305599c 	movw	r5, #22940	; 0x599c
   10370:	e1a06001 	mov	r6, r1
   10374:	e3405001 	movt	r5, #1
   10378:	e3a08001 	mov	r8, #1
   1037c:	e1a07005 	mov	r7, r5
   10380:	e16f3f14 	clz	r3, r4
   10384:	e263301f 	rsb	r3, r3, #31
   10388:	e0832006 	add	r2, r3, r6
   1038c:	e1c44318 	bic	r4, r4, r8, lsl r3
   10390:	e1a00002 	mov	r0, r2
   10394:	e0871182 	add	r1, r7, r2, lsl #3
   10398:	e7953182 	ldr	r3, [r5, r2, lsl #3]
   1039c:	e3530000 	cmp	r3, #0
   103a0:	0a000001 	beq	103ac <handleRange+0x4c>
   103a4:	e5911004 	ldr	r1, [r1, #4]
   103a8:	e12fff33 	blx	r3
   103ac:	e3540000 	cmp	r4, #0
   103b0:	1afffff2 	bne	10380 <handleRange+0x20>
   103b4:	e8bd81f0 	pop	{r4, r5, r6, r7, r8, pc}

000103b8 <stubHandler>:
   103b8:	e92d4008 	push	{r3, lr}
   103bc:	ebffff41 	bl	100c8 <uart_send>
   103c0:	e3a0000d 	mov	r0, #13
   103c4:	ebffff3f 	bl	100c8 <uart_send>
   103c8:	e3a0000a 	mov	r0, #10
   103cc:	e8bd4008 	pop	{r3, lr}
   103d0:	eaffff3c 	b	100c8 <uart_send>

000103d4 <OS_CPU_IRQ_ISR_Handler>:
   103d4:	e3a02cb2 	mov	r2, #45568	; 0xb200
   103d8:	e3003cff 	movw	r3, #3327	; 0xcff
   103dc:	e3432f00 	movt	r2, #16128	; 0x3f00
   103e0:	e92d4010 	push	{r4, lr}
   103e4:	e5924000 	ldr	r4, [r2]
   103e8:	e0033004 	and	r3, r3, r4
   103ec:	e3530000 	cmp	r3, #0
   103f0:	1a000015 	bne	1044c <OS_CPU_IRQ_ISR_Handler+0x78>
   103f4:	e3140c01 	tst	r4, #256	; 0x100
   103f8:	1a000009 	bne	10424 <OS_CPU_IRQ_ISR_Handler+0x50>
   103fc:	e3140c02 	tst	r4, #512	; 0x200
   10400:	08bd8010 	popeq	{r4, pc}
   10404:	e3a03cb2 	mov	r3, #45568	; 0xb200
   10408:	e3a01020 	mov	r1, #32
   1040c:	e3433f00 	movt	r3, #16128	; 0x3f00
   10410:	e8bd4010 	pop	{r4, lr}
   10414:	e5932008 	ldr	r2, [r3, #8]
   10418:	e5930014 	ldr	r0, [r3, #20]
   1041c:	e0000002 	and	r0, r0, r2
   10420:	eaffffce 	b	10360 <handleRange>
   10424:	e3a03cb2 	mov	r3, #45568	; 0xb200
   10428:	e3a01000 	mov	r1, #0
   1042c:	e3433f00 	movt	r3, #16128	; 0x3f00
   10430:	e5932004 	ldr	r2, [r3, #4]
   10434:	e5930010 	ldr	r0, [r3, #16]
   10438:	e0000002 	and	r0, r0, r2
   1043c:	ebffffc7 	bl	10360 <handleRange>
   10440:	e3140c02 	tst	r4, #512	; 0x200
   10444:	08bd8010 	popeq	{r4, pc}
   10448:	eaffffed 	b	10404 <OS_CPU_IRQ_ISR_Handler+0x30>
   1044c:	e5920018 	ldr	r0, [r2, #24]
   10450:	e3a01040 	mov	r1, #64	; 0x40
   10454:	e0000004 	and	r0, r0, r4
   10458:	e6ef0070 	uxtb	r0, r0
   1045c:	ebffffbf 	bl	10360 <handleRange>
   10460:	eaffffe3 	b	103f4 <OS_CPU_IRQ_ISR_Handler+0x20>

00010464 <InitInterruptController>:
   10464:	e305399c 	movw	r3, #22940	; 0x599c
   10468:	e30023b8 	movw	r2, #952	; 0x3b8
   1046c:	e3403001 	movt	r3, #1
   10470:	e3402001 	movt	r2, #1
   10474:	e2830d09 	add	r0, r3, #576	; 0x240
   10478:	e3a01000 	mov	r1, #0
   1047c:	e5832000 	str	r2, [r3]
   10480:	e2833008 	add	r3, r3, #8
   10484:	e5031004 	str	r1, [r3, #-4]
   10488:	e1530000 	cmp	r3, r0
   1048c:	1afffffa 	bne	1047c <InitInterruptController+0x18>
   10490:	e3a00000 	mov	r0, #0
   10494:	e12fff1e 	bx	lr

00010498 <RegisterInterrupt>:
   10498:	e10f0000 	mrs	r0, CPSR
   1049c:	e3800080 	orr	r0, r0, #128	; 0x80
   104a0:	e121f000 	msr	CPSR_c, r0
   104a4:	e305399c 	movw	r3, #22940	; 0x599c
   104a8:	e3403001 	movt	r3, #1
   104ac:	e083c180 	add	ip, r3, r0, lsl #3
   104b0:	e7831180 	str	r1, [r3, r0, lsl #3]
   104b4:	e58c2004 	str	r2, [ip, #4]
   104b8:	e10f0000 	mrs	r0, CPSR
   104bc:	e3c00080 	bic	r0, r0, #128	; 0x80
   104c0:	e121f000 	msr	CPSR_c, r0
   104c4:	e3a00000 	mov	r0, #0
   104c8:	e12fff1e 	bx	lr

000104cc <EnableInterrupt>:
   104cc:	e350001f 	cmp	r0, #31
   104d0:	9a000013 	bls	10524 <EnableInterrupt+0x58>
   104d4:	e2403020 	sub	r3, r0, #32
   104d8:	e353001f 	cmp	r3, #31
   104dc:	9a000008 	bls	10504 <EnableInterrupt+0x38>
   104e0:	e2400040 	sub	r0, r0, #64	; 0x40
   104e4:	e3500008 	cmp	r0, #8
   104e8:	93a02cb2 	movls	r2, #45568	; 0xb200
   104ec:	93a03001 	movls	r3, #1
   104f0:	93432f00 	movtls	r2, #16128	; 0x3f00
   104f4:	91a00013 	lslls	r0, r3, r0
   104f8:	95820018 	strls	r0, [r2, #24]
   104fc:	e3a00000 	mov	r0, #0
   10500:	e12fff1e 	bx	lr
   10504:	e3a02cb2 	mov	r2, #45568	; 0xb200
   10508:	e3a00001 	mov	r0, #1
   1050c:	e3432f00 	movt	r2, #16128	; 0x3f00
   10510:	e5921014 	ldr	r1, [r2, #20]
   10514:	e1813310 	orr	r3, r1, r0, lsl r3
   10518:	e3a00000 	mov	r0, #0
   1051c:	e5823014 	str	r3, [r2, #20]
   10520:	e12fff1e 	bx	lr
   10524:	e3a03cb2 	mov	r3, #45568	; 0xb200
   10528:	e3a01001 	mov	r1, #1
   1052c:	e3433f00 	movt	r3, #16128	; 0x3f00
   10530:	e5932010 	ldr	r2, [r3, #16]
   10534:	e1820011 	orr	r0, r2, r1, lsl r0
   10538:	e5830010 	str	r0, [r3, #16]
   1053c:	e3a00000 	mov	r0, #0
   10540:	e12fff1e 	bx	lr

00010544 <DisableInterrupt>:
   10544:	e350001f 	cmp	r0, #31
   10548:	9a000015 	bls	105a4 <DisableInterrupt+0x60>
   1054c:	e2403020 	sub	r3, r0, #32
   10550:	e353001f 	cmp	r3, #31
   10554:	9a00000a 	bls	10584 <DisableInterrupt+0x40>
   10558:	e2400040 	sub	r0, r0, #64	; 0x40
   1055c:	e3500008 	cmp	r0, #8
   10560:	8a000005 	bhi	1057c <DisableInterrupt+0x38>
   10564:	e3a03cb2 	mov	r3, #45568	; 0xb200
   10568:	e3a01001 	mov	r1, #1
   1056c:	e3433f00 	movt	r3, #16128	; 0x3f00
   10570:	e5932024 	ldr	r2, [r3, #36]	; 0x24
   10574:	e1c20011 	bic	r0, r2, r1, lsl r0
   10578:	e5830024 	str	r0, [r3, #36]	; 0x24
   1057c:	e3a00000 	mov	r0, #0
   10580:	e12fff1e 	bx	lr
   10584:	e3a02cb2 	mov	r2, #45568	; 0xb200
   10588:	e3a00001 	mov	r0, #1
   1058c:	e3432f00 	movt	r2, #16128	; 0x3f00
   10590:	e5921014 	ldr	r1, [r2, #20]
   10594:	e1c13310 	bic	r3, r1, r0, lsl r3
   10598:	e3a00000 	mov	r0, #0
   1059c:	e5823014 	str	r3, [r2, #20]
   105a0:	e12fff1e 	bx	lr
   105a4:	e3a03cb2 	mov	r3, #45568	; 0xb200
   105a8:	e3a01001 	mov	r1, #1
   105ac:	e3433f00 	movt	r3, #16128	; 0x3f00
   105b0:	e5932010 	ldr	r2, [r3, #16]
   105b4:	e1c20011 	bic	r0, r2, r1, lsl r0
   105b8:	e5830010 	str	r0, [r3, #16]
   105bc:	e3a00000 	mov	r0, #0
   105c0:	e12fff1e 	bx	lr

000105c4 <EnableInterrupts>:
   105c4:	e10f0000 	mrs	r0, CPSR
   105c8:	e3c00080 	bic	r0, r0, #128	; 0x80
   105cc:	e121f000 	msr	CPSR_c, r0
   105d0:	e3a00000 	mov	r0, #0
   105d4:	e12fff1e 	bx	lr

000105d8 <DisableInterrupts>:
   105d8:	e10f0000 	mrs	r0, CPSR
   105dc:	e3800080 	orr	r0, r0, #128	; 0x80
   105e0:	e121f000 	msr	CPSR_c, r0
   105e4:	e3a00000 	mov	r0, #0
   105e8:	e12fff1e 	bx	lr

000105ec <OSCtxSw>:
   105ec:	e52de004 	push	{lr}		; (str lr, [sp, #-4]!)
   105f0:	e52de004 	push	{lr}		; (str lr, [sp, #-4]!)
   105f4:	e52dc004 	push	{ip}		; (str ip, [sp, #-4]!)
   105f8:	e52db004 	push	{fp}		; (str fp, [sp, #-4]!)
   105fc:	e52da004 	push	{sl}		; (str sl, [sp, #-4]!)
   10600:	e52d9004 	push	{r9}		; (str r9, [sp, #-4]!)
   10604:	e52d8004 	push	{r8}		; (str r8, [sp, #-4]!)
   10608:	e52d7004 	push	{r7}		; (str r7, [sp, #-4]!)
   1060c:	e52d6004 	push	{r6}		; (str r6, [sp, #-4]!)
   10610:	e52d5004 	push	{r5}		; (str r5, [sp, #-4]!)
   10614:	e52d4004 	push	{r4}		; (str r4, [sp, #-4]!)
   10618:	e52d3004 	push	{r3}		; (str r3, [sp, #-4]!)
   1061c:	e52d2004 	push	{r2}		; (str r2, [sp, #-4]!)
   10620:	e52d1004 	push	{r1}		; (str r1, [sp, #-4]!)
   10624:	e52d0004 	push	{r0}		; (str r0, [sp, #-4]!)
   10628:	e10f4000 	mrs	r4, CPSR
   1062c:	e52d4004 	push	{r4}		; (str r4, [sp, #-4]!)
   10630:	e59f424c 	ldr	r4, [pc, #588]	; 10884 <OS_CPU_IRQ_ISR_1+0x54>
   10634:	e5945000 	ldr	r5, [r4]
   10638:	e585d000 	str	sp, [r5]
   1063c:	eb0000c7 	bl	10960 <OSTaskSwHook>
   10640:	e59f4240 	ldr	r4, [pc, #576]	; 10888 <OS_CPU_IRQ_ISR_1+0x58>
   10644:	e59f5240 	ldr	r5, [pc, #576]	; 1088c <OS_CPU_IRQ_ISR_1+0x5c>
   10648:	e5d56000 	ldrb	r6, [r5]
   1064c:	e5c46000 	strb	r6, [r4]
   10650:	e59f422c 	ldr	r4, [pc, #556]	; 10884 <OS_CPU_IRQ_ISR_1+0x54>
   10654:	e59f6234 	ldr	r6, [pc, #564]	; 10890 <OS_CPU_IRQ_ISR_1+0x60>
   10658:	e5966000 	ldr	r6, [r6]
   1065c:	e5846000 	str	r6, [r4]
   10660:	e596d000 	ldr	sp, [r6]
   10664:	e49d4004 	pop	{r4}		; (ldr r4, [sp], #4)
   10668:	e12ff004 	msr	CPSR_fsxc, r4
   1066c:	e49d0004 	pop	{r0}		; (ldr r0, [sp], #4)
   10670:	e49d1004 	pop	{r1}		; (ldr r1, [sp], #4)
   10674:	e49d2004 	pop	{r2}		; (ldr r2, [sp], #4)
   10678:	e49d3004 	pop	{r3}		; (ldr r3, [sp], #4)
   1067c:	e49d4004 	pop	{r4}		; (ldr r4, [sp], #4)
   10680:	e49d5004 	pop	{r5}		; (ldr r5, [sp], #4)
   10684:	e49d6004 	pop	{r6}		; (ldr r6, [sp], #4)
   10688:	e49d7004 	pop	{r7}		; (ldr r7, [sp], #4)
   1068c:	e49d8004 	pop	{r8}		; (ldr r8, [sp], #4)
   10690:	e49d9004 	pop	{r9}		; (ldr r9, [sp], #4)
   10694:	e49da004 	pop	{sl}		; (ldr sl, [sp], #4)
   10698:	e49db004 	pop	{fp}		; (ldr fp, [sp], #4)
   1069c:	e49dc004 	pop	{ip}		; (ldr ip, [sp], #4)
   106a0:	e49de004 	pop	{lr}		; (ldr lr, [sp], #4)
   106a4:	e49df004 	pop	{pc}		; (ldr pc, [sp], #4)

000106a8 <OSIntCtxSw>:
   106a8:	eb0000ac 	bl	10960 <OSTaskSwHook>
   106ac:	e59f41d4 	ldr	r4, [pc, #468]	; 10888 <OS_CPU_IRQ_ISR_1+0x58>
   106b0:	e59f51d4 	ldr	r5, [pc, #468]	; 1088c <OS_CPU_IRQ_ISR_1+0x5c>
   106b4:	e5d56000 	ldrb	r6, [r5]
   106b8:	e5c46000 	strb	r6, [r4]
   106bc:	e59f41c0 	ldr	r4, [pc, #448]	; 10884 <OS_CPU_IRQ_ISR_1+0x54>
   106c0:	e59f61c8 	ldr	r6, [pc, #456]	; 10890 <OS_CPU_IRQ_ISR_1+0x60>
   106c4:	e5966000 	ldr	r6, [r6]
   106c8:	e5846000 	str	r6, [r4]
   106cc:	e596d000 	ldr	sp, [r6]
   106d0:	e49d4004 	pop	{r4}		; (ldr r4, [sp], #4)
   106d4:	e12ff004 	msr	CPSR_fsxc, r4
   106d8:	e49d0004 	pop	{r0}		; (ldr r0, [sp], #4)
   106dc:	e49d1004 	pop	{r1}		; (ldr r1, [sp], #4)
   106e0:	e49d2004 	pop	{r2}		; (ldr r2, [sp], #4)
   106e4:	e49d3004 	pop	{r3}		; (ldr r3, [sp], #4)
   106e8:	e49d4004 	pop	{r4}		; (ldr r4, [sp], #4)
   106ec:	e49d5004 	pop	{r5}		; (ldr r5, [sp], #4)
   106f0:	e49d6004 	pop	{r6}		; (ldr r6, [sp], #4)
   106f4:	e49d7004 	pop	{r7}		; (ldr r7, [sp], #4)
   106f8:	e49d8004 	pop	{r8}		; (ldr r8, [sp], #4)
   106fc:	e49d9004 	pop	{r9}		; (ldr r9, [sp], #4)
   10700:	e49da004 	pop	{sl}		; (ldr sl, [sp], #4)
   10704:	e49db004 	pop	{fp}		; (ldr fp, [sp], #4)
   10708:	e49dc004 	pop	{ip}		; (ldr ip, [sp], #4)
   1070c:	e49de004 	pop	{lr}		; (ldr lr, [sp], #4)
   10710:	e49df004 	pop	{pc}		; (ldr pc, [sp], #4)

00010714 <OSStartHighRdy>:
   10714:	e32ff0df 	msr	CPSR_fsxc, #223	; 0xdf
   10718:	eb000090 	bl	10960 <OSTaskSwHook>
   1071c:	e59f4170 	ldr	r4, [pc, #368]	; 10894 <OS_CPU_IRQ_ISR_1+0x64>
   10720:	e3a05001 	mov	r5, #1
   10724:	e5c45000 	strb	r5, [r4]
   10728:	e59f4160 	ldr	r4, [pc, #352]	; 10890 <OS_CPU_IRQ_ISR_1+0x60>
   1072c:	e5944000 	ldr	r4, [r4]
   10730:	e594d000 	ldr	sp, [r4]
   10734:	e49d4004 	pop	{r4}		; (ldr r4, [sp], #4)
   10738:	e12ff004 	msr	CPSR_fsxc, r4
   1073c:	e49d0004 	pop	{r0}		; (ldr r0, [sp], #4)
   10740:	e49d1004 	pop	{r1}		; (ldr r1, [sp], #4)
   10744:	e49d2004 	pop	{r2}		; (ldr r2, [sp], #4)
   10748:	e49d3004 	pop	{r3}		; (ldr r3, [sp], #4)
   1074c:	e49d4004 	pop	{r4}		; (ldr r4, [sp], #4)
   10750:	e49d5004 	pop	{r5}		; (ldr r5, [sp], #4)
   10754:	e49d6004 	pop	{r6}		; (ldr r6, [sp], #4)
   10758:	e49d7004 	pop	{r7}		; (ldr r7, [sp], #4)
   1075c:	e49d8004 	pop	{r8}		; (ldr r8, [sp], #4)
   10760:	e49d9004 	pop	{r9}		; (ldr r9, [sp], #4)
   10764:	e49da004 	pop	{sl}		; (ldr sl, [sp], #4)
   10768:	e49db004 	pop	{fp}		; (ldr fp, [sp], #4)
   1076c:	e49dc004 	pop	{ip}		; (ldr ip, [sp], #4)
   10770:	e49de004 	pop	{lr}		; (ldr lr, [sp], #4)
   10774:	e49df004 	pop	{pc}		; (ldr pc, [sp], #4)

00010778 <OS_CPU_SR_Save>:
   10778:	e10f0000 	mrs	r0, CPSR
   1077c:	e38010c0 	orr	r1, r0, #192	; 0xc0
   10780:	e121f001 	msr	CPSR_c, r1
   10784:	e10f1000 	mrs	r1, CPSR
   10788:	e20110c0 	and	r1, r1, #192	; 0xc0
   1078c:	e35100c0 	cmp	r1, #192	; 0xc0
   10790:	1afffff8 	bne	10778 <OS_CPU_SR_Save>
   10794:	e1a0f00e 	mov	pc, lr

00010798 <OS_CPU_SR_Restore>:
   10798:	e121f000 	msr	CPSR_c, r0
   1079c:	e1a0f00e 	mov	pc, lr

000107a0 <OS_CPU_IRQ_ISR>:
   107a0:	e52d3004 	push	{r3}		; (str r3, [sp, #-4]!)
   107a4:	e52d2004 	push	{r2}		; (str r2, [sp, #-4]!)
   107a8:	e52d1004 	push	{r1}		; (str r1, [sp, #-4]!)
   107ac:	e1a0100d 	mov	r1, sp
   107b0:	e28dd00c 	add	sp, sp, #12
   107b4:	e24e2004 	sub	r2, lr, #4
   107b8:	e14f3000 	mrs	r3, SPSR
   107bc:	e321f0df 	msr	CPSR_c, #223	; 0xdf
   107c0:	e52d2004 	push	{r2}		; (str r2, [sp, #-4]!)
   107c4:	e52de004 	push	{lr}		; (str lr, [sp, #-4]!)
   107c8:	e52dc004 	push	{ip}		; (str ip, [sp, #-4]!)
   107cc:	e52db004 	push	{fp}		; (str fp, [sp, #-4]!)
   107d0:	e52da004 	push	{sl}		; (str sl, [sp, #-4]!)
   107d4:	e52d9004 	push	{r9}		; (str r9, [sp, #-4]!)
   107d8:	e52d8004 	push	{r8}		; (str r8, [sp, #-4]!)
   107dc:	e52d7004 	push	{r7}		; (str r7, [sp, #-4]!)
   107e0:	e52d6004 	push	{r6}		; (str r6, [sp, #-4]!)
   107e4:	e52d5004 	push	{r5}		; (str r5, [sp, #-4]!)
   107e8:	e52d4004 	push	{r4}		; (str r4, [sp, #-4]!)
   107ec:	e4914004 	ldr	r4, [r1], #4
   107f0:	e4915004 	ldr	r5, [r1], #4
   107f4:	e4916004 	ldr	r6, [r1], #4
   107f8:	e52d6004 	push	{r6}		; (str r6, [sp, #-4]!)
   107fc:	e52d5004 	push	{r5}		; (str r5, [sp, #-4]!)
   10800:	e52d4004 	push	{r4}		; (str r4, [sp, #-4]!)
   10804:	e52d0004 	push	{r0}		; (str r0, [sp, #-4]!)
   10808:	e52d3004 	push	{r3}		; (str r3, [sp, #-4]!)
   1080c:	e59f0084 	ldr	r0, [pc, #132]	; 10898 <OS_CPU_IRQ_ISR_1+0x68>
   10810:	e5d01000 	ldrb	r1, [r0]
   10814:	e2811001 	add	r1, r1, #1
   10818:	e5c01000 	strb	r1, [r0]
   1081c:	e3510001 	cmp	r1, #1
   10820:	1a000002 	bne	10830 <OS_CPU_IRQ_ISR_1>
   10824:	e59f4058 	ldr	r4, [pc, #88]	; 10884 <OS_CPU_IRQ_ISR_1+0x54>
   10828:	e5945000 	ldr	r5, [r4]
   1082c:	e585d000 	str	sp, [r5]

00010830 <OS_CPU_IRQ_ISR_1>:
   10830:	e321f0d2 	msr	CPSR_c, #210	; 0xd2
   10834:	ebfffee6 	bl	103d4 <OS_CPU_IRQ_ISR_Handler>
   10838:	e321f0df 	msr	CPSR_c, #223	; 0xdf
   1083c:	eb0000b3 	bl	10b10 <OSIntExit>
   10840:	e49d4004 	pop	{r4}		; (ldr r4, [sp], #4)
   10844:	e12ff004 	msr	CPSR_fsxc, r4
   10848:	e49d0004 	pop	{r0}		; (ldr r0, [sp], #4)
   1084c:	e49d1004 	pop	{r1}		; (ldr r1, [sp], #4)
   10850:	e49d2004 	pop	{r2}		; (ldr r2, [sp], #4)
   10854:	e49d3004 	pop	{r3}		; (ldr r3, [sp], #4)
   10858:	e49d4004 	pop	{r4}		; (ldr r4, [sp], #4)
   1085c:	e49d5004 	pop	{r5}		; (ldr r5, [sp], #4)
   10860:	e49d6004 	pop	{r6}		; (ldr r6, [sp], #4)
   10864:	e49d7004 	pop	{r7}		; (ldr r7, [sp], #4)
   10868:	e49d8004 	pop	{r8}		; (ldr r8, [sp], #4)
   1086c:	e49d9004 	pop	{r9}		; (ldr r9, [sp], #4)
   10870:	e49da004 	pop	{sl}		; (ldr sl, [sp], #4)
   10874:	e49db004 	pop	{fp}		; (ldr fp, [sp], #4)
   10878:	e49dc004 	pop	{ip}		; (ldr ip, [sp], #4)
   1087c:	e49de004 	pop	{lr}		; (ldr lr, [sp], #4)
   10880:	e49df004 	pop	{pc}		; (ldr pc, [sp], #4)
   10884:	00016538 	andeq	r6, r1, r8, lsr r5
   10888:	00015c24 	andeq	r5, r1, r4, lsr #24
   1088c:	00015be4 	andeq	r5, r1, r4, ror #23
   10890:	0001651c 	andeq	r6, r1, ip, lsl r5
   10894:	00015bdd 	ldrdeq	r5, [r1], -sp
   10898:	00016535 	andeq	r6, r1, r5, lsr r5

0001089c <OSTaskStkInit>:
   1089c:	e1a03002 	mov	r3, r2
   108a0:	e5820000 	str	r0, [r2]
   108a4:	e92d4ff0 	push	{r4, r5, r6, r7, r8, r9, sl, fp, lr}
   108a8:	e301b414 	movw	fp, #5140	; 0x1414
   108ac:	e5021038 	str	r1, [r2, #-56]	; 0xffffffc8
   108b0:	e7dfb81b 	bfi	fp, fp, #16, #16
   108b4:	e301a212 	movw	sl, #4626	; 0x1212
   108b8:	e502b004 	str	fp, [r2, #-4]
   108bc:	e3019111 	movw	r9, #4369	; 0x1111
   108c0:	e3018010 	movw	r8, #4112	; 0x1010
   108c4:	e3007909 	movw	r7, #2313	; 0x909
   108c8:	e3006808 	movw	r6, #2056	; 0x808
   108cc:	e3005707 	movw	r5, #1799	; 0x707
   108d0:	e3004606 	movw	r4, #1542	; 0x606
   108d4:	e300e505 	movw	lr, #1285	; 0x505
   108d8:	e300c404 	movw	ip, #1028	; 0x404
   108dc:	e3000303 	movw	r0, #771	; 0x303
   108e0:	e3001202 	movw	r1, #514	; 0x202
   108e4:	e300b101 	movw	fp, #257	; 0x101
   108e8:	e7dfa81a 	bfi	sl, sl, #16, #16
   108ec:	e7df9819 	bfi	r9, r9, #16, #16
   108f0:	e502a008 	str	sl, [r2, #-8]
   108f4:	e7df8818 	bfi	r8, r8, #16, #16
   108f8:	e502900c 	str	r9, [r2, #-12]
   108fc:	e7df7817 	bfi	r7, r7, #16, #16
   10900:	e5028010 	str	r8, [r2, #-16]
   10904:	e7df6816 	bfi	r6, r6, #16, #16
   10908:	e5027014 	str	r7, [r2, #-20]	; 0xffffffec
   1090c:	e7df5815 	bfi	r5, r5, #16, #16
   10910:	e5026018 	str	r6, [r2, #-24]	; 0xffffffe8
   10914:	e7df4814 	bfi	r4, r4, #16, #16
   10918:	e502501c 	str	r5, [r2, #-28]	; 0xffffffe4
   1091c:	e7dfe81e 	bfi	lr, lr, #16, #16
   10920:	e5024020 	str	r4, [r2, #-32]	; 0xffffffe0
   10924:	e7dfc81c 	bfi	ip, ip, #16, #16
   10928:	e502e024 	str	lr, [r2, #-36]	; 0xffffffdc
   1092c:	e7df0810 	bfi	r0, r0, #16, #16
   10930:	e502c028 	str	ip, [r2, #-40]	; 0xffffffd8
   10934:	e7df1811 	bfi	r1, r1, #16, #16
   10938:	e502002c 	str	r0, [r2, #-44]	; 0xffffffd4
   1093c:	e7dfb81b 	bfi	fp, fp, #16, #16
   10940:	e5021030 	str	r1, [r2, #-48]	; 0xffffffd0
   10944:	e3a0101f 	mov	r1, #31
   10948:	e502b034 	str	fp, [r2, #-52]	; 0xffffffcc
   1094c:	e523103c 	str	r1, [r3, #-60]!	; 0xffffffc4
   10950:	e1a00003 	mov	r0, r3
   10954:	e8bd8ff0 	pop	{r4, r5, r6, r7, r8, r9, sl, fp, pc}

00010958 <OSTaskCreateHook>:
   10958:	e12fff1e 	bx	lr

0001095c <OSTaskDelHook>:
   1095c:	e12fff1e 	bx	lr

00010960 <OSTaskSwHook>:
   10960:	e12fff1e 	bx	lr

00010964 <OSTaskStatHook>:
   10964:	e12fff1e 	bx	lr

00010968 <OSTimeTickHook>:
   10968:	e12fff1e 	bx	lr

0001096c <OSInitHookBegin>:
   1096c:	e12fff1e 	bx	lr

00010970 <OSInitHookEnd>:
   10970:	e12fff1e 	bx	lr

00010974 <OSTaskIdleHook>:
   10974:	e12fff1e 	bx	lr

00010978 <OSTCBInitHook>:
   10978:	e12fff1e 	bx	lr

0001097c <OS_FlagBlock>:
   1097c:	e306c538 	movw	ip, #25912	; 0x6538
   10980:	e340c001 	movt	ip, #1
   10984:	e92d4030 	push	{r4, r5, lr}
   10988:	e59cc000 	ldr	ip, [ip]
   1098c:	e3a04000 	mov	r4, #0
   10990:	e1dd50bc 	ldrh	r5, [sp, #12]
   10994:	e5dce02c 	ldrb	lr, [ip, #44]	; 0x2c
   10998:	e58c1024 	str	r1, [ip, #36]	; 0x24
   1099c:	e1cc52ba 	strh	r5, [ip, #42]	; 0x2a
   109a0:	e38ee020 	orr	lr, lr, #32
   109a4:	e5cce02c 	strb	lr, [ip, #44]	; 0x2c
   109a8:	e5c13012 	strb	r3, [r1, #18]
   109ac:	e581c008 	str	ip, [r1, #8]
   109b0:	e5903004 	ldr	r3, [r0, #4]
   109b4:	e5813000 	str	r3, [r1]
   109b8:	e5814004 	str	r4, [r1, #4]
   109bc:	e1530004 	cmp	r3, r4
   109c0:	e1c121b0 	strh	r2, [r1, #16]
   109c4:	e3062528 	movw	r2, #25896	; 0x6528
   109c8:	e581000c 	str	r0, [r1, #12]
   109cc:	e3402001 	movt	r2, #1
   109d0:	15831004 	strne	r1, [r3, #4]
   109d4:	e5801004 	str	r1, [r0, #4]
   109d8:	e5dc102f 	ldrb	r1, [ip, #47]	; 0x2f
   109dc:	e5dc0030 	ldrb	r0, [ip, #48]	; 0x30
   109e0:	e7d23001 	ldrb	r3, [r2, r1]
   109e4:	e1c33000 	bic	r3, r3, r0
   109e8:	e7c23001 	strb	r3, [r2, r1]
   109ec:	e3530000 	cmp	r3, #0
   109f0:	18bd8030 	popne	{r4, r5, pc}
   109f4:	e3063524 	movw	r3, #25892	; 0x6524
   109f8:	e5dc1031 	ldrb	r1, [ip, #49]	; 0x31
   109fc:	e3403001 	movt	r3, #1
   10a00:	e5d32000 	ldrb	r2, [r3]
   10a04:	e1c22001 	bic	r2, r2, r1
   10a08:	e5c32000 	strb	r2, [r3]
   10a0c:	e8bd8030 	pop	{r4, r5, pc}

00010a10 <OS_FlagTaskRdy>:
   10a10:	e1a02000 	mov	r2, r0
   10a14:	e3a00000 	mov	r0, #0
   10a18:	e92d4070 	push	{r4, r5, r6, lr}
   10a1c:	e5923008 	ldr	r3, [r2, #8]
   10a20:	e5d3c02c 	ldrb	ip, [r3, #44]	; 0x2c
   10a24:	e1c312b8 	strh	r1, [r3, #40]	; 0x28
   10a28:	e20c10df 	and	r1, ip, #223	; 0xdf
   10a2c:	e1c302ba 	strh	r0, [r3, #42]	; 0x2a
   10a30:	e1510000 	cmp	r1, r0
   10a34:	e5c3102c 	strb	r1, [r3, #44]	; 0x2c
   10a38:	1a00000d 	bne	10a74 <OS_FlagTaskRdy+0x64>
   10a3c:	e306c524 	movw	ip, #25892	; 0x6524
   10a40:	e3061528 	movw	r1, #25896	; 0x6528
   10a44:	e5d3402f 	ldrb	r4, [r3, #47]	; 0x2f
   10a48:	e340c001 	movt	ip, #1
   10a4c:	e3401001 	movt	r1, #1
   10a50:	e5d3e031 	ldrb	lr, [r3, #49]	; 0x31
   10a54:	e5d33030 	ldrb	r3, [r3, #48]	; 0x30
   10a58:	e3a00001 	mov	r0, #1
   10a5c:	e5dc6000 	ldrb	r6, [ip]
   10a60:	e7d15004 	ldrb	r5, [r1, r4]
   10a64:	e186e00e 	orr	lr, r6, lr
   10a68:	e5cce000 	strb	lr, [ip]
   10a6c:	e1853003 	orr	r3, r5, r3
   10a70:	e7c13004 	strb	r3, [r1, r4]
   10a74:	e5921004 	ldr	r1, [r2, #4]
   10a78:	e5923000 	ldr	r3, [r2]
   10a7c:	e3510000 	cmp	r1, #0
   10a80:	0a000007 	beq	10aa4 <OS_FlagTaskRdy+0x94>
   10a84:	e3530000 	cmp	r3, #0
   10a88:	e5813000 	str	r3, [r1]
   10a8c:	0a000000 	beq	10a94 <OS_FlagTaskRdy+0x84>
   10a90:	e5831004 	str	r1, [r3, #4]
   10a94:	e5923008 	ldr	r3, [r2, #8]
   10a98:	e3a02000 	mov	r2, #0
   10a9c:	e5832024 	str	r2, [r3, #36]	; 0x24
   10aa0:	e8bd8070 	pop	{r4, r5, r6, pc}
   10aa4:	e592c00c 	ldr	ip, [r2, #12]
   10aa8:	e3530000 	cmp	r3, #0
   10aac:	e58c3004 	str	r3, [ip, #4]
   10ab0:	1afffff6 	bne	10a90 <OS_FlagTaskRdy+0x80>
   10ab4:	eafffff6 	b	10a94 <OS_FlagTaskRdy+0x84>

00010ab8 <OS_TaskIdle>:
   10ab8:	e92d4010 	push	{r4, lr}
   10abc:	e3054be0 	movw	r4, #23520	; 0x5be0
   10ac0:	e3404001 	movt	r4, #1
   10ac4:	ebffff2b 	bl	10778 <OS_CPU_SR_Save>
   10ac8:	e5943000 	ldr	r3, [r4]
   10acc:	e2833001 	add	r3, r3, #1
   10ad0:	e5843000 	str	r3, [r4]
   10ad4:	ebffff2f 	bl	10798 <OS_CPU_SR_Restore>
   10ad8:	ebffffa5 	bl	10974 <OSTaskIdleHook>
   10adc:	eafffff8 	b	10ac4 <OS_TaskIdle+0xc>

00010ae0 <OSIntEnter>:
   10ae0:	e3053bdd 	movw	r3, #23517	; 0x5bdd
   10ae4:	e3403001 	movt	r3, #1
   10ae8:	e5d33000 	ldrb	r3, [r3]
   10aec:	e3530001 	cmp	r3, #1
   10af0:	112fff1e 	bxne	lr
   10af4:	e3063535 	movw	r3, #25909	; 0x6535
   10af8:	e3403001 	movt	r3, #1
   10afc:	e5d32000 	ldrb	r2, [r3]
   10b00:	e35200ff 	cmp	r2, #255	; 0xff
   10b04:	12822001 	addne	r2, r2, #1
   10b08:	15c32000 	strbne	r2, [r3]
   10b0c:	e12fff1e 	bx	lr

00010b10 <OSIntExit>:
   10b10:	e3053bdd 	movw	r3, #23517	; 0x5bdd
   10b14:	e3403001 	movt	r3, #1
   10b18:	e5d33000 	ldrb	r3, [r3]
   10b1c:	e3530001 	cmp	r3, #1
   10b20:	112fff1e 	bxne	lr
   10b24:	e92d4030 	push	{r4, r5, lr}
   10b28:	e24dd00c 	sub	sp, sp, #12
   10b2c:	ebffff11 	bl	10778 <OS_CPU_SR_Save>
   10b30:	e3062535 	movw	r2, #25909	; 0x6535
   10b34:	e3402001 	movt	r2, #1
   10b38:	e5d23000 	ldrb	r3, [r2]
   10b3c:	e3530000 	cmp	r3, #0
   10b40:	1a00002c 	bne	10bf8 <OSIntExit+0xe8>
   10b44:	e3053bdc 	movw	r3, #23516	; 0x5bdc
   10b48:	e3403001 	movt	r3, #1
   10b4c:	e5d33000 	ldrb	r3, [r3]
   10b50:	e3530000 	cmp	r3, #0
   10b54:	1a000024 	bne	10bec <OSIntExit+0xdc>
   10b58:	e3061524 	movw	r1, #25892	; 0x6524
   10b5c:	e30427fc 	movw	r2, #18428	; 0x47fc
   10b60:	e3401001 	movt	r1, #1
   10b64:	e305cc24 	movw	ip, #23588	; 0x5c24
   10b68:	e3402001 	movt	r2, #1
   10b6c:	e340c001 	movt	ip, #1
   10b70:	e3063528 	movw	r3, #25896	; 0x6528
   10b74:	e306e534 	movw	lr, #25908	; 0x6534
   10b78:	e5d15000 	ldrb	r5, [r1]
   10b7c:	e3403001 	movt	r3, #1
   10b80:	e5dc4000 	ldrb	r4, [ip]
   10b84:	e3051be4 	movw	r1, #23524	; 0x5be4
   10b88:	e3401001 	movt	r1, #1
   10b8c:	e340e001 	movt	lr, #1
   10b90:	e7d2c005 	ldrb	ip, [r2, r5]
   10b94:	e5cec000 	strb	ip, [lr]
   10b98:	e7d3300c 	ldrb	r3, [r3, ip]
   10b9c:	e7d23003 	ldrb	r3, [r2, r3]
   10ba0:	e083318c 	add	r3, r3, ip, lsl #3
   10ba4:	e6ef3073 	uxtb	r3, r3
   10ba8:	e5c13000 	strb	r3, [r1]
   10bac:	e1540003 	cmp	r4, r3
   10bb0:	0a00000d 	beq	10bec <OSIntExit+0xdc>
   10bb4:	e3062490 	movw	r2, #25744	; 0x6490
   10bb8:	e307e1ac 	movw	lr, #29100	; 0x71ac
   10bbc:	e3402001 	movt	r2, #1
   10bc0:	e340e001 	movt	lr, #1
   10bc4:	e306c51c 	movw	ip, #25884	; 0x651c
   10bc8:	e58d0004 	str	r0, [sp, #4]
   10bcc:	e340c001 	movt	ip, #1
   10bd0:	e5921000 	ldr	r1, [r2]
   10bd4:	e79ee103 	ldr	lr, [lr, r3, lsl #2]
   10bd8:	e58ce000 	str	lr, [ip]
   10bdc:	e2813001 	add	r3, r1, #1
   10be0:	e5823000 	str	r3, [r2]
   10be4:	ebfffeaf 	bl	106a8 <OSIntCtxSw>
   10be8:	e59d0004 	ldr	r0, [sp, #4]
   10bec:	e28dd00c 	add	sp, sp, #12
   10bf0:	e8bd4030 	pop	{r4, r5, lr}
   10bf4:	eafffee7 	b	10798 <OS_CPU_SR_Restore>
   10bf8:	e2433001 	sub	r3, r3, #1
   10bfc:	e6ef3073 	uxtb	r3, r3
   10c00:	e5c23000 	strb	r3, [r2]
   10c04:	e3530000 	cmp	r3, #0
   10c08:	1afffff7 	bne	10bec <OSIntExit+0xdc>
   10c0c:	eaffffcc 	b	10b44 <OSIntExit+0x34>

00010c10 <OSSchedLock>:
   10c10:	e92d4008 	push	{r3, lr}
   10c14:	e3053bdd 	movw	r3, #23517	; 0x5bdd
   10c18:	e3403001 	movt	r3, #1
   10c1c:	e5d33000 	ldrb	r3, [r3]
   10c20:	e3530001 	cmp	r3, #1
   10c24:	18bd8008 	popne	{r3, pc}
   10c28:	ebfffed2 	bl	10778 <OS_CPU_SR_Save>
   10c2c:	e3053bdc 	movw	r3, #23516	; 0x5bdc
   10c30:	e3403001 	movt	r3, #1
   10c34:	e5d32000 	ldrb	r2, [r3]
   10c38:	e35200ff 	cmp	r2, #255	; 0xff
   10c3c:	12822001 	addne	r2, r2, #1
   10c40:	15c32000 	strbne	r2, [r3]
   10c44:	e8bd4008 	pop	{r3, lr}
   10c48:	eafffed2 	b	10798 <OS_CPU_SR_Restore>

00010c4c <OSStart>:
   10c4c:	e3053bdd 	movw	r3, #23517	; 0x5bdd
   10c50:	e3403001 	movt	r3, #1
   10c54:	e5d33000 	ldrb	r3, [r3]
   10c58:	e3530000 	cmp	r3, #0
   10c5c:	112fff1e 	bxne	lr
   10c60:	e3063524 	movw	r3, #25892	; 0x6524
   10c64:	e30427fc 	movw	r2, #18428	; 0x47fc
   10c68:	e92d4070 	push	{r4, r5, r6, lr}
   10c6c:	e3403001 	movt	r3, #1
   10c70:	e3402001 	movt	r2, #1
   10c74:	e3065528 	movw	r5, #25896	; 0x6528
   10c78:	e307c1ac 	movw	ip, #29100	; 0x71ac
   10c7c:	e3405001 	movt	r5, #1
   10c80:	e3054be4 	movw	r4, #23524	; 0x5be4
   10c84:	e5d33000 	ldrb	r3, [r3]
   10c88:	e305ec24 	movw	lr, #23588	; 0x5c24
   10c8c:	e3404001 	movt	r4, #1
   10c90:	e340e001 	movt	lr, #1
   10c94:	e340c001 	movt	ip, #1
   10c98:	e306051c 	movw	r0, #25884	; 0x651c
   10c9c:	e7d26003 	ldrb	r6, [r2, r3]
   10ca0:	e3061538 	movw	r1, #25912	; 0x6538
   10ca4:	e3400001 	movt	r0, #1
   10ca8:	e3401001 	movt	r1, #1
   10cac:	e7d53006 	ldrb	r3, [r5, r6]
   10cb0:	e7d23003 	ldrb	r3, [r2, r3]
   10cb4:	e0833186 	add	r3, r3, r6, lsl #3
   10cb8:	e6ef3073 	uxtb	r3, r3
   10cbc:	e5c43000 	strb	r3, [r4]
   10cc0:	e5ce3000 	strb	r3, [lr]
   10cc4:	e8bd4070 	pop	{r4, r5, r6, lr}
   10cc8:	e79c3103 	ldr	r3, [ip, r3, lsl #2]
   10ccc:	e5803000 	str	r3, [r0]
   10cd0:	e5813000 	str	r3, [r1]
   10cd4:	eafffe8e 	b	10714 <OSStartHighRdy>

00010cd8 <OSTimeTick>:
   10cd8:	e92d40f8 	push	{r3, r4, r5, r6, r7, lr}
   10cdc:	ebffff21 	bl	10968 <OSTimeTickHook>
   10ce0:	ebfffea4 	bl	10778 <OS_CPU_SR_Save>
   10ce4:	e306353c 	movw	r3, #25916	; 0x653c
   10ce8:	e3403001 	movt	r3, #1
   10cec:	e5932000 	ldr	r2, [r3]
   10cf0:	e2822001 	add	r2, r2, #1
   10cf4:	e5832000 	str	r2, [r3]
   10cf8:	ebfffea6 	bl	10798 <OS_CPU_SR_Restore>
   10cfc:	e3053bdd 	movw	r3, #23517	; 0x5bdd
   10d00:	e3403001 	movt	r3, #1
   10d04:	e5d35000 	ldrb	r5, [r3]
   10d08:	e3550001 	cmp	r5, #1
   10d0c:	18bd80f8 	popne	{r3, r4, r5, r6, r7, pc}
   10d10:	e3053c28 	movw	r3, #23592	; 0x5c28
   10d14:	e3403001 	movt	r3, #1
   10d18:	e5934000 	ldr	r4, [r3]
   10d1c:	e5d4302d 	ldrb	r3, [r4, #45]	; 0x2d
   10d20:	e353003f 	cmp	r3, #63	; 0x3f
   10d24:	08bd80f8 	popeq	{r3, r4, r5, r6, r7, pc}
   10d28:	e3067524 	movw	r7, #25892	; 0x6524
   10d2c:	e3066528 	movw	r6, #25896	; 0x6528
   10d30:	e3407001 	movt	r7, #1
   10d34:	e3406001 	movt	r6, #1
   10d38:	ebfffe8e 	bl	10778 <OS_CPU_SR_Save>
   10d3c:	e1d422ba 	ldrh	r2, [r4, #42]	; 0x2a
   10d40:	e2423001 	sub	r3, r2, #1
   10d44:	e3520000 	cmp	r2, #0
   10d48:	e6ff3073 	uxth	r3, r3
   10d4c:	0a00000e 	beq	10d8c <OSTimeTick+0xb4>
   10d50:	e3530000 	cmp	r3, #0
   10d54:	e1c432ba 	strh	r3, [r4, #42]	; 0x2a
   10d58:	1a00000b 	bne	10d8c <OSTimeTick+0xb4>
   10d5c:	e5d4302c 	ldrb	r3, [r4, #44]	; 0x2c
   10d60:	e3130008 	tst	r3, #8
   10d64:	11c452ba 	strhne	r5, [r4, #42]	; 0x2a
   10d68:	05d4102f 	ldrbeq	r1, [r4, #47]	; 0x2f
   10d6c:	05d42030 	ldrbeq	r2, [r4, #48]	; 0x30
   10d70:	05d7c000 	ldrbeq	ip, [r7]
   10d74:	07d6e001 	ldrbeq	lr, [r6, r1]
   10d78:	05d43031 	ldrbeq	r3, [r4, #49]	; 0x31
   10d7c:	018e2002 	orreq	r2, lr, r2
   10d80:	07c62001 	strbeq	r2, [r6, r1]
   10d84:	018c3003 	orreq	r3, ip, r3
   10d88:	05c73000 	strbeq	r3, [r7]
   10d8c:	e5944014 	ldr	r4, [r4, #20]
   10d90:	ebfffe80 	bl	10798 <OS_CPU_SR_Restore>
   10d94:	e5d4302d 	ldrb	r3, [r4, #45]	; 0x2d
   10d98:	e353003f 	cmp	r3, #63	; 0x3f
   10d9c:	1affffe5 	bne	10d38 <OSTimeTick+0x60>
   10da0:	e8bd80f8 	pop	{r3, r4, r5, r6, r7, pc}

00010da4 <OSVersion>:
   10da4:	e3a000fc 	mov	r0, #252	; 0xfc
   10da8:	e12fff1e 	bx	lr

00010dac <OS_Dummy>:
   10dac:	e12fff1e 	bx	lr

00010db0 <OS_EventTaskRdy>:
   10db0:	e92d41f0 	push	{r4, r5, r6, r7, r8, lr}
   10db4:	e30437fc 	movw	r3, #18428	; 0x47fc
   10db8:	e1a05000 	mov	r5, r0
   10dbc:	e5d07001 	ldrb	r7, [r0, #1]
   10dc0:	e3403001 	movt	r3, #1
   10dc4:	e7d34007 	ldrb	r4, [r3, r7]
   10dc8:	e0808004 	add	r8, r0, r4
   10dcc:	e0830004 	add	r0, r3, r4
   10dd0:	e5d8c008 	ldrb	ip, [r8, #8]
   10dd4:	e5d06100 	ldrb	r6, [r0, #256]	; 0x100
   10dd8:	e7d3e00c 	ldrb	lr, [r3, ip]
   10ddc:	e083300e 	add	r3, r3, lr
   10de0:	e08ee184 	add	lr, lr, r4, lsl #3
   10de4:	e6ef007e 	uxtb	r0, lr
   10de8:	e5d3e100 	ldrb	lr, [r3, #256]	; 0x100
   10dec:	e1cc300e 	bic	r3, ip, lr
   10df0:	e5c83008 	strb	r3, [r8, #8]
   10df4:	e3530000 	cmp	r3, #0
   10df8:	e30731ac 	movw	r3, #29100	; 0x71ac
   10dfc:	e3403001 	movt	r3, #1
   10e00:	01c77006 	biceq	r7, r7, r6
   10e04:	05c57001 	strbeq	r7, [r5, #1]
   10e08:	e3a05000 	mov	r5, #0
   10e0c:	e7933100 	ldr	r3, [r3, r0, lsl #2]
   10e10:	e5d3c02c 	ldrb	ip, [r3, #44]	; 0x2c
   10e14:	e5831020 	str	r1, [r3, #32]
   10e18:	e1cc2002 	bic	r2, ip, r2
   10e1c:	e1c352ba 	strh	r5, [r3, #42]	; 0x2a
   10e20:	e1520005 	cmp	r2, r5
   10e24:	e5c3202c 	strb	r2, [r3, #44]	; 0x2c
   10e28:	e583501c 	str	r5, [r3, #28]
   10e2c:	18bd81f0 	popne	{r4, r5, r6, r7, r8, pc}
   10e30:	e3062524 	movw	r2, #25892	; 0x6524
   10e34:	e3063528 	movw	r3, #25896	; 0x6528
   10e38:	e3402001 	movt	r2, #1
   10e3c:	e3403001 	movt	r3, #1
   10e40:	e5d2c000 	ldrb	ip, [r2]
   10e44:	e7d31004 	ldrb	r1, [r3, r4]
   10e48:	e186600c 	orr	r6, r6, ip
   10e4c:	e5c26000 	strb	r6, [r2]
   10e50:	e18ee001 	orr	lr, lr, r1
   10e54:	e7c3e004 	strb	lr, [r3, r4]
   10e58:	e8bd81f0 	pop	{r4, r5, r6, r7, r8, pc}

00010e5c <OS_EventTaskWait>:
   10e5c:	e3063538 	movw	r3, #25912	; 0x6538
   10e60:	e306c528 	movw	ip, #25896	; 0x6528
   10e64:	e3403001 	movt	r3, #1
   10e68:	e340c001 	movt	ip, #1
   10e6c:	e92d4010 	push	{r4, lr}
   10e70:	e5932000 	ldr	r2, [r3]
   10e74:	e5d2302f 	ldrb	r3, [r2, #47]	; 0x2f
   10e78:	e5d2e030 	ldrb	lr, [r2, #48]	; 0x30
   10e7c:	e582001c 	str	r0, [r2, #28]
   10e80:	e7dc1003 	ldrb	r1, [ip, r3]
   10e84:	e1c1100e 	bic	r1, r1, lr
   10e88:	e7cc1003 	strb	r1, [ip, r3]
   10e8c:	e3510000 	cmp	r1, #0
   10e90:	1a000005 	bne	10eac <OS_EventTaskWait+0x50>
   10e94:	e3061524 	movw	r1, #25892	; 0x6524
   10e98:	e5d24031 	ldrb	r4, [r2, #49]	; 0x31
   10e9c:	e3401001 	movt	r1, #1
   10ea0:	e5d1c000 	ldrb	ip, [r1]
   10ea4:	e1ccc004 	bic	ip, ip, r4
   10ea8:	e5c1c000 	strb	ip, [r1]
   10eac:	e0803003 	add	r3, r0, r3
   10eb0:	e5d01001 	ldrb	r1, [r0, #1]
   10eb4:	e5d3c008 	ldrb	ip, [r3, #8]
   10eb8:	e18ec00c 	orr	ip, lr, ip
   10ebc:	e5c3c008 	strb	ip, [r3, #8]
   10ec0:	e5d23031 	ldrb	r3, [r2, #49]	; 0x31
   10ec4:	e1833001 	orr	r3, r3, r1
   10ec8:	e5c03001 	strb	r3, [r0, #1]
   10ecc:	e8bd8010 	pop	{r4, pc}

00010ed0 <OS_EventTO>:
   10ed0:	e3063538 	movw	r3, #25912	; 0x6538
   10ed4:	e3403001 	movt	r3, #1
   10ed8:	e5933000 	ldr	r3, [r3]
   10edc:	e5d3102f 	ldrb	r1, [r3, #47]	; 0x2f
   10ee0:	e5d3c030 	ldrb	ip, [r3, #48]	; 0x30
   10ee4:	e0801001 	add	r1, r0, r1
   10ee8:	e5d12008 	ldrb	r2, [r1, #8]
   10eec:	e1c2200c 	bic	r2, r2, ip
   10ef0:	e5c12008 	strb	r2, [r1, #8]
   10ef4:	e3520000 	cmp	r2, #0
   10ef8:	05d02001 	ldrbeq	r2, [r0, #1]
   10efc:	05d31031 	ldrbeq	r1, [r3, #49]	; 0x31
   10f00:	01c22001 	biceq	r2, r2, r1
   10f04:	05c02001 	strbeq	r2, [r0, #1]
   10f08:	e3a02000 	mov	r2, #0
   10f0c:	e5c3202c 	strb	r2, [r3, #44]	; 0x2c
   10f10:	e583201c 	str	r2, [r3, #28]
   10f14:	e12fff1e 	bx	lr

00010f18 <OS_EventWaitListInit>:
   10f18:	e3a03000 	mov	r3, #0
   10f1c:	e5c03001 	strb	r3, [r0, #1]
   10f20:	e5c03008 	strb	r3, [r0, #8]
   10f24:	e5c03009 	strb	r3, [r0, #9]
   10f28:	e5c0300a 	strb	r3, [r0, #10]
   10f2c:	e5c0300b 	strb	r3, [r0, #11]
   10f30:	e5c0300c 	strb	r3, [r0, #12]
   10f34:	e5c0300d 	strb	r3, [r0, #13]
   10f38:	e5c0300e 	strb	r3, [r0, #14]
   10f3c:	e5c0300f 	strb	r3, [r0, #15]
   10f40:	e12fff1e 	bx	lr

00010f44 <OS_Sched>:
   10f44:	e92d4010 	push	{r4, lr}
   10f48:	e24dd008 	sub	sp, sp, #8
   10f4c:	ebfffe09 	bl	10778 <OS_CPU_SR_Save>
   10f50:	e3063535 	movw	r3, #25909	; 0x6535
   10f54:	e3403001 	movt	r3, #1
   10f58:	e5d33000 	ldrb	r3, [r3]
   10f5c:	e3530000 	cmp	r3, #0
   10f60:	1a000026 	bne	11000 <OS_Sched+0xbc>
   10f64:	e3053bdc 	movw	r3, #23516	; 0x5bdc
   10f68:	e3403001 	movt	r3, #1
   10f6c:	e5d33000 	ldrb	r3, [r3]
   10f70:	e3530000 	cmp	r3, #0
   10f74:	1a000021 	bne	11000 <OS_Sched+0xbc>
   10f78:	e3061524 	movw	r1, #25892	; 0x6524
   10f7c:	e30427fc 	movw	r2, #18428	; 0x47fc
   10f80:	e3401001 	movt	r1, #1
   10f84:	e3402001 	movt	r2, #1
   10f88:	e306c528 	movw	ip, #25896	; 0x6528
   10f8c:	e3053c24 	movw	r3, #23588	; 0x5c24
   10f90:	e3403001 	movt	r3, #1
   10f94:	e340c001 	movt	ip, #1
   10f98:	e5d1e000 	ldrb	lr, [r1]
   10f9c:	e3051be4 	movw	r1, #23524	; 0x5be4
   10fa0:	e3401001 	movt	r1, #1
   10fa4:	e5d34000 	ldrb	r4, [r3]
   10fa8:	e7d2e00e 	ldrb	lr, [r2, lr]
   10fac:	e7dc300e 	ldrb	r3, [ip, lr]
   10fb0:	e7d23003 	ldrb	r3, [r2, r3]
   10fb4:	e083318e 	add	r3, r3, lr, lsl #3
   10fb8:	e6ef3073 	uxtb	r3, r3
   10fbc:	e5c13000 	strb	r3, [r1]
   10fc0:	e1540003 	cmp	r4, r3
   10fc4:	0a00000d 	beq	11000 <OS_Sched+0xbc>
   10fc8:	e3062490 	movw	r2, #25744	; 0x6490
   10fcc:	e307e1ac 	movw	lr, #29100	; 0x71ac
   10fd0:	e3402001 	movt	r2, #1
   10fd4:	e340e001 	movt	lr, #1
   10fd8:	e306c51c 	movw	ip, #25884	; 0x651c
   10fdc:	e58d0004 	str	r0, [sp, #4]
   10fe0:	e340c001 	movt	ip, #1
   10fe4:	e5921000 	ldr	r1, [r2]
   10fe8:	e79ee103 	ldr	lr, [lr, r3, lsl #2]
   10fec:	e58ce000 	str	lr, [ip]
   10ff0:	e2813001 	add	r3, r1, #1
   10ff4:	e5823000 	str	r3, [r2]
   10ff8:	ebfffd7b 	bl	105ec <OSCtxSw>
   10ffc:	e59d0004 	ldr	r0, [sp, #4]
   11000:	e28dd008 	add	sp, sp, #8
   11004:	e8bd4010 	pop	{r4, lr}
   11008:	eafffde2 	b	10798 <OS_CPU_SR_Restore>

0001100c <OSSchedUnlock>:
   1100c:	e92d4008 	push	{r3, lr}
   11010:	e3053bdd 	movw	r3, #23517	; 0x5bdd
   11014:	e3403001 	movt	r3, #1
   11018:	e5d33000 	ldrb	r3, [r3]
   1101c:	e3530001 	cmp	r3, #1
   11020:	18bd8008 	popne	{r3, pc}
   11024:	ebfffdd3 	bl	10778 <OS_CPU_SR_Save>
   11028:	e3052bdc 	movw	r2, #23516	; 0x5bdc
   1102c:	e3402001 	movt	r2, #1
   11030:	e1a01000 	mov	r1, r0
   11034:	e5d23000 	ldrb	r3, [r2]
   11038:	e3530000 	cmp	r3, #0
   1103c:	0a00000c 	beq	11074 <OSSchedUnlock+0x68>
   11040:	e2433001 	sub	r3, r3, #1
   11044:	e6ef3073 	uxtb	r3, r3
   11048:	e5c23000 	strb	r3, [r2]
   1104c:	e3530000 	cmp	r3, #0
   11050:	1a000004 	bne	11068 <OSSchedUnlock+0x5c>
   11054:	e3063535 	movw	r3, #25909	; 0x6535
   11058:	e3403001 	movt	r3, #1
   1105c:	e5d33000 	ldrb	r3, [r3]
   11060:	e3530000 	cmp	r3, #0
   11064:	0a000004 	beq	1107c <OSSchedUnlock+0x70>
   11068:	e1a00001 	mov	r0, r1
   1106c:	e8bd4008 	pop	{r3, lr}
   11070:	eafffdc8 	b	10798 <OS_CPU_SR_Restore>
   11074:	e8bd4008 	pop	{r3, lr}
   11078:	eafffdc6 	b	10798 <OS_CPU_SR_Restore>
   1107c:	ebfffdc5 	bl	10798 <OS_CPU_SR_Restore>
   11080:	e8bd4008 	pop	{r3, lr}
   11084:	eaffffae 	b	10f44 <OS_Sched>

00011088 <OSTimeDly.part.1>:
   11088:	e92d4010 	push	{r4, lr}
   1108c:	e1a04000 	mov	r4, r0
   11090:	ebfffdb8 	bl	10778 <OS_CPU_SR_Save>
   11094:	e3063538 	movw	r3, #25912	; 0x6538
   11098:	e3062528 	movw	r2, #25896	; 0x6528
   1109c:	e3403001 	movt	r3, #1
   110a0:	e3402001 	movt	r2, #1
   110a4:	e5931000 	ldr	r1, [r3]
   110a8:	e5d1c02f 	ldrb	ip, [r1, #47]	; 0x2f
   110ac:	e5d1e030 	ldrb	lr, [r1, #48]	; 0x30
   110b0:	e7d2300c 	ldrb	r3, [r2, ip]
   110b4:	e1c3300e 	bic	r3, r3, lr
   110b8:	e7c2300c 	strb	r3, [r2, ip]
   110bc:	e3530000 	cmp	r3, #0
   110c0:	1a000005 	bne	110dc <OSTimeDly.part.1+0x54>
   110c4:	e3063524 	movw	r3, #25892	; 0x6524
   110c8:	e5d1c031 	ldrb	ip, [r1, #49]	; 0x31
   110cc:	e3403001 	movt	r3, #1
   110d0:	e5d32000 	ldrb	r2, [r3]
   110d4:	e1c2200c 	bic	r2, r2, ip
   110d8:	e5c32000 	strb	r2, [r3]
   110dc:	e1c142ba 	strh	r4, [r1, #42]	; 0x2a
   110e0:	ebfffdac 	bl	10798 <OS_CPU_SR_Restore>
   110e4:	e8bd4010 	pop	{r4, lr}
   110e8:	eaffff95 	b	10f44 <OS_Sched>

000110ec <OSStatInit>:
   110ec:	e92d4010 	push	{r4, lr}
   110f0:	e3054be0 	movw	r4, #23520	; 0x5be0
   110f4:	e3a00002 	mov	r0, #2
   110f8:	e3404001 	movt	r4, #1
   110fc:	ebffffe1 	bl	11088 <OSTimeDly.part.1>
   11100:	ebfffd9c 	bl	10778 <OS_CPU_SR_Save>
   11104:	e3a03000 	mov	r3, #0
   11108:	e5843000 	str	r3, [r4]
   1110c:	ebfffda1 	bl	10798 <OS_CPU_SR_Restore>
   11110:	e3a00064 	mov	r0, #100	; 0x64
   11114:	ebffffdb 	bl	11088 <OSTimeDly.part.1>
   11118:	ebfffd96 	bl	10778 <OS_CPU_SR_Save>
   1111c:	e30731a8 	movw	r3, #29096	; 0x71a8
   11120:	e3403001 	movt	r3, #1
   11124:	e3062494 	movw	r2, #25748	; 0x6494
   11128:	e3402001 	movt	r2, #1
   1112c:	e3a01001 	mov	r1, #1
   11130:	e594c000 	ldr	ip, [r4]
   11134:	e5c31000 	strb	r1, [r3]
   11138:	e582c000 	str	ip, [r2]
   1113c:	e8bd4010 	pop	{r4, lr}
   11140:	eafffd94 	b	10798 <OS_CPU_SR_Restore>

00011144 <OS_TaskStat>:
   11144:	e92d4ff8 	push	{r3, r4, r5, r6, r7, r8, r9, sl, fp, lr}
   11148:	e30741a8 	movw	r4, #29096	; 0x71a8
   1114c:	e3404001 	movt	r4, #1
   11150:	e5d43000 	ldrb	r3, [r4]
   11154:	e3530000 	cmp	r3, #0
   11158:	1a000004 	bne	11170 <OS_TaskStat+0x2c>
   1115c:	e3a000c8 	mov	r0, #200	; 0xc8
   11160:	ebffffc8 	bl	11088 <OSTimeDly.part.1>
   11164:	e5d43000 	ldrb	r3, [r4]
   11168:	e3530000 	cmp	r3, #0
   1116c:	0afffffa 	beq	1115c <OS_TaskStat+0x18>
   11170:	e306a494 	movw	sl, #25748	; 0x6494
   11174:	e308251f 	movw	r2, #34079	; 0x851f
   11178:	e340a001 	movt	sl, #1
   1117c:	e34521eb 	movt	r2, #20971	; 0x51eb
   11180:	e1a0b002 	mov	fp, r2
   11184:	e3055be0 	movw	r5, #23520	; 0x5be0
   11188:	e30792ac 	movw	r9, #29356	; 0x72ac
   1118c:	e306849c 	movw	r8, #25756	; 0x649c
   11190:	e59a3000 	ldr	r3, [sl]
   11194:	e3405001 	movt	r5, #1
   11198:	e3409001 	movt	r9, #1
   1119c:	e3408001 	movt	r8, #1
   111a0:	e3a07000 	mov	r7, #0
   111a4:	e0832293 	umull	r2, r3, r3, r2
   111a8:	e1a062a3 	lsr	r6, r3, #5
   111ac:	ea000008 	b	111d4 <OS_TaskStat+0x90>
   111b0:	e734f614 	udiv	r4, r4, r6
   111b4:	e2644064 	rsb	r4, r4, #100	; 0x64
   111b8:	e6ef4074 	uxtb	r4, r4
   111bc:	e3140080 	tst	r4, #128	; 0x80
   111c0:	05c84000 	strbeq	r4, [r8]
   111c4:	15c87000 	strbne	r7, [r8]
   111c8:	ebfffde5 	bl	10964 <OSTaskStatHook>
   111cc:	e3a00064 	mov	r0, #100	; 0x64
   111d0:	ebffffac 	bl	11088 <OSTimeDly.part.1>
   111d4:	ebfffd67 	bl	10778 <OS_CPU_SR_Save>
   111d8:	e5953000 	ldr	r3, [r5]
   111dc:	e5893000 	str	r3, [r9]
   111e0:	e5954000 	ldr	r4, [r5]
   111e4:	e5857000 	str	r7, [r5]
   111e8:	ebfffd6a 	bl	10798 <OS_CPU_SR_Restore>
   111ec:	e3560000 	cmp	r6, #0
   111f0:	1affffee 	bne	111b0 <OS_TaskStat+0x6c>
   111f4:	e59a2000 	ldr	r2, [sl]
   111f8:	e5c86000 	strb	r6, [r8]
   111fc:	e0832b92 	umull	r2, r3, r2, fp
   11200:	e1a062a3 	lsr	r6, r3, #5
   11204:	eaffffef 	b	111c8 <OS_TaskStat+0x84>

00011208 <OS_TCBInit>:
   11208:	e92d47f0 	push	{r4, r5, r6, r7, r8, r9, sl, lr}
   1120c:	e1a07003 	mov	r7, r3
   11210:	e1a06000 	mov	r6, r0
   11214:	e1a0a001 	mov	sl, r1
   11218:	e1a09002 	mov	r9, r2
   1121c:	e1dd82b8 	ldrh	r8, [sp, #40]	; 0x28
   11220:	ebfffd54 	bl	10778 <OS_CPU_SR_Save>
   11224:	e3063498 	movw	r3, #25752	; 0x6498
   11228:	e3403001 	movt	r3, #1
   1122c:	e5934000 	ldr	r4, [r3]
   11230:	e3540000 	cmp	r4, #0
   11234:	0a00003e 	beq	11334 <OS_TCBInit+0x12c>
   11238:	e5942014 	ldr	r2, [r4, #20]
   1123c:	e3a05000 	mov	r5, #0
   11240:	e5832000 	str	r2, [r3]
   11244:	ebfffd53 	bl	10798 <OS_CPU_SR_Restore>
   11248:	e30437fc 	movw	r3, #18428	; 0x47fc
   1124c:	e1a011a6 	lsr	r1, r6, #3
   11250:	e2062007 	and	r2, r6, #7
   11254:	e3403001 	movt	r3, #1
   11258:	e083c001 	add	ip, r3, r1
   1125c:	e0833002 	add	r3, r3, r2
   11260:	e59de024 	ldr	lr, [sp, #36]	; 0x24
   11264:	e1a00004 	mov	r0, r4
   11268:	e584e004 	str	lr, [r4, #4]
   1126c:	e5dcc100 	ldrb	ip, [ip, #256]	; 0x100
   11270:	e59de020 	ldr	lr, [sp, #32]
   11274:	e5d33100 	ldrb	r3, [r3, #256]	; 0x100
   11278:	e584e00c 	str	lr, [r4, #12]
   1127c:	e5c4102f 	strb	r1, [r4, #47]	; 0x2f
   11280:	e5c4c031 	strb	ip, [r4, #49]	; 0x31
   11284:	e5c43030 	strb	r3, [r4, #48]	; 0x30
   11288:	e5c4202e 	strb	r2, [r4, #46]	; 0x2e
   1128c:	e5c4602d 	strb	r6, [r4, #45]	; 0x2d
   11290:	e1c471b2 	strh	r7, [r4, #18]
   11294:	e5c4502c 	strb	r5, [r4, #44]	; 0x2c
   11298:	e1c452ba 	strh	r5, [r4, #42]	; 0x2a
   1129c:	e5c45032 	strb	r5, [r4, #50]	; 0x32
   112a0:	e584501c 	str	r5, [r4, #28]
   112a4:	e5845024 	str	r5, [r4, #36]	; 0x24
   112a8:	e5845020 	str	r5, [r4, #32]
   112ac:	e584a000 	str	sl, [r4]
   112b0:	e5849008 	str	r9, [r4, #8]
   112b4:	e1c481b0 	strh	r8, [r4, #16]
   112b8:	ebfffdae 	bl	10978 <OSTCBInitHook>
   112bc:	e1a00004 	mov	r0, r4
   112c0:	ebfffda4 	bl	10958 <OSTaskCreateHook>
   112c4:	ebfffd2b 	bl	10778 <OS_CPU_SR_Save>
   112c8:	e3051c28 	movw	r1, #23592	; 0x5c28
   112cc:	e3401001 	movt	r1, #1
   112d0:	e30731ac 	movw	r3, #29100	; 0x71ac
   112d4:	e3403001 	movt	r3, #1
   112d8:	e5912000 	ldr	r2, [r1]
   112dc:	e7834106 	str	r4, [r3, r6, lsl #2]
   112e0:	e3063528 	movw	r3, #25896	; 0x6528
   112e4:	e1520005 	cmp	r2, r5
   112e8:	e5845018 	str	r5, [r4, #24]
   112ec:	e5842014 	str	r2, [r4, #20]
   112f0:	e3403001 	movt	r3, #1
   112f4:	15824018 	strne	r4, [r2, #24]
   112f8:	e3062524 	movw	r2, #25892	; 0x6524
   112fc:	e5d4502f 	ldrb	r5, [r4, #47]	; 0x2f
   11300:	e3402001 	movt	r2, #1
   11304:	e5d4e031 	ldrb	lr, [r4, #49]	; 0x31
   11308:	e5d4c030 	ldrb	ip, [r4, #48]	; 0x30
   1130c:	e5d27000 	ldrb	r7, [r2]
   11310:	e7d36005 	ldrb	r6, [r3, r5]
   11314:	e187e00e 	orr	lr, r7, lr
   11318:	e5814000 	str	r4, [r1]
   1131c:	e5c2e000 	strb	lr, [r2]
   11320:	e186200c 	orr	r2, r6, ip
   11324:	e7c32005 	strb	r2, [r3, r5]
   11328:	ebfffd1a 	bl	10798 <OS_CPU_SR_Restore>
   1132c:	e3a00000 	mov	r0, #0
   11330:	e8bd87f0 	pop	{r4, r5, r6, r7, r8, r9, sl, pc}
   11334:	ebfffd17 	bl	10798 <OS_CPU_SR_Restore>
   11338:	e3a00046 	mov	r0, #70	; 0x46
   1133c:	e8bd87f0 	pop	{r4, r5, r6, r7, r8, r9, sl, pc}

00011340 <OSTaskCreateExt.part.0>:
   11340:	e92d4ff0 	push	{r4, r5, r6, r7, r8, r9, sl, fp, lr}
   11344:	e30741ac 	movw	r4, #29100	; 0x71ac
   11348:	e1a05003 	mov	r5, r3
   1134c:	e24dd014 	sub	sp, sp, #20
   11350:	e3404001 	movt	r4, #1
   11354:	e1a0b000 	mov	fp, r0
   11358:	e1a0a001 	mov	sl, r1
   1135c:	e1a09002 	mov	r9, r2
   11360:	e1dd83b8 	ldrh	r8, [sp, #56]	; 0x38
   11364:	e1dd74b8 	ldrh	r7, [sp, #72]	; 0x48
   11368:	ebfffd02 	bl	10778 <OS_CPU_SR_Save>
   1136c:	e7946105 	ldr	r6, [r4, r5, lsl #2]
   11370:	e3560000 	cmp	r6, #0
   11374:	0a000003 	beq	11388 <OSTaskCreateExt.part.0+0x48>
   11378:	ebfffd06 	bl	10798 <OS_CPU_SR_Restore>
   1137c:	e3a00028 	mov	r0, #40	; 0x28
   11380:	e28dd014 	add	sp, sp, #20
   11384:	e8bd8ff0 	pop	{r4, r5, r6, r7, r8, r9, sl, fp, pc}
   11388:	e3a03001 	mov	r3, #1
   1138c:	e7843105 	str	r3, [r4, r5, lsl #2]
   11390:	ebfffd00 	bl	10798 <OS_CPU_SR_Restore>
   11394:	e3170003 	tst	r7, #3
   11398:	1a000026 	bne	11438 <OSTaskCreateExt.part.0+0xf8>
   1139c:	e1a0100a 	mov	r1, sl
   113a0:	e1a02009 	mov	r2, r9
   113a4:	e1a03007 	mov	r3, r7
   113a8:	e1a0000b 	mov	r0, fp
   113ac:	ebfffd3a 	bl	1089c <OSTaskStkInit>
   113b0:	e59d3040 	ldr	r3, [sp, #64]	; 0x40
   113b4:	e58d3000 	str	r3, [sp]
   113b8:	e1a01000 	mov	r1, r0
   113bc:	e59d3044 	ldr	r3, [sp, #68]	; 0x44
   113c0:	e1a00005 	mov	r0, r5
   113c4:	e58d3004 	str	r3, [sp, #4]
   113c8:	e1a03008 	mov	r3, r8
   113cc:	e58d7008 	str	r7, [sp, #8]
   113d0:	e59d203c 	ldr	r2, [sp, #60]	; 0x3c
   113d4:	ebffff8b 	bl	11208 <OS_TCBInit>
   113d8:	e2506000 	subs	r6, r0, #0
   113dc:	1a00000f 	bne	11420 <OSTaskCreateExt.part.0+0xe0>
   113e0:	ebfffce4 	bl	10778 <OS_CPU_SR_Save>
   113e4:	e306349d 	movw	r3, #25757	; 0x649d
   113e8:	e3403001 	movt	r3, #1
   113ec:	e5d32000 	ldrb	r2, [r3]
   113f0:	e2822001 	add	r2, r2, #1
   113f4:	e5c32000 	strb	r2, [r3]
   113f8:	ebfffce6 	bl	10798 <OS_CPU_SR_Restore>
   113fc:	e3053bdd 	movw	r3, #23517	; 0x5bdd
   11400:	e3403001 	movt	r3, #1
   11404:	e5d33000 	ldrb	r3, [r3]
   11408:	e3530001 	cmp	r3, #1
   1140c:	11a00006 	movne	r0, r6
   11410:	1affffda 	bne	11380 <OSTaskCreateExt.part.0+0x40>
   11414:	ebfffeca 	bl	10f44 <OS_Sched>
   11418:	e1a00006 	mov	r0, r6
   1141c:	eaffffd7 	b	11380 <OSTaskCreateExt.part.0+0x40>
   11420:	ebfffcd4 	bl	10778 <OS_CPU_SR_Save>
   11424:	e3a03000 	mov	r3, #0
   11428:	e7843105 	str	r3, [r4, r5, lsl #2]
   1142c:	ebfffcd9 	bl	10798 <OS_CPU_SR_Restore>
   11430:	e1a00006 	mov	r0, r6
   11434:	eaffffd1 	b	11380 <OSTaskCreateExt.part.0+0x40>
   11438:	e59d3040 	ldr	r3, [sp, #64]	; 0x40
   1143c:	e1a01006 	mov	r1, r6
   11440:	e59d003c 	ldr	r0, [sp, #60]	; 0x3c
   11444:	e1a02103 	lsl	r2, r3, #2
   11448:	eb000cad 	bl	14704 <memset>
   1144c:	eaffffd2 	b	1139c <OSTaskCreateExt.part.0+0x5c>

00011450 <OSFlagAccept>:
   11450:	e92d41f0 	push	{r4, r5, r6, r7, r8, lr}
   11454:	e1a06003 	mov	r6, r3
   11458:	e2505000 	subs	r5, r0, #0
   1145c:	03e03069 	mvneq	r3, #105	; 0x69
   11460:	01a04005 	moveq	r4, r5
   11464:	05c63000 	strbeq	r3, [r6]
   11468:	0a000005 	beq	11484 <OSFlagAccept+0x34>
   1146c:	e5d53000 	ldrb	r3, [r5]
   11470:	e3530005 	cmp	r3, #5
   11474:	0a000004 	beq	1148c <OSFlagAccept+0x3c>
   11478:	e3a03001 	mov	r3, #1
   1147c:	e3a04000 	mov	r4, #0
   11480:	e5c63000 	strb	r3, [r6]
   11484:	e1a00004 	mov	r0, r4
   11488:	e8bd81f0 	pop	{r4, r5, r6, r7, r8, pc}
   1148c:	e3120080 	tst	r2, #128	; 0x80
   11490:	e1a04002 	mov	r4, r2
   11494:	e3a03000 	mov	r3, #0
   11498:	1202407f 	andne	r4, r2, #127	; 0x7f
   1149c:	e5c63000 	strb	r3, [r6]
   114a0:	13a08001 	movne	r8, #1
   114a4:	03a08000 	moveq	r8, #0
   114a8:	e1a07001 	mov	r7, r1
   114ac:	ebfffcb1 	bl	10778 <OS_CPU_SR_Save>
   114b0:	e3540003 	cmp	r4, #3
   114b4:	979ff104 	ldrls	pc, [pc, r4, lsl #2]
   114b8:	ea000020 	b	11540 <OSFlagAccept+0xf0>
   114bc:	0001152c 	andeq	r1, r1, ip, lsr #10
   114c0:	00011510 	andeq	r1, r1, r0, lsl r5
   114c4:	000114f0 	strdeq	r1, [r1], -r0
   114c8:	000114cc 	andeq	r1, r1, ip, asr #9
   114cc:	e1d540b8 	ldrh	r4, [r5, #8]
   114d0:	e0177004 	ands	r7, r7, r4
   114d4:	1a000009 	bne	11500 <OSFlagAccept+0xb0>
   114d8:	e3e03067 	mvn	r3, #103	; 0x67
   114dc:	e5c63000 	strb	r3, [r6]
   114e0:	e1d540b8 	ldrh	r4, [r5, #8]
   114e4:	ebfffcab 	bl	10798 <OS_CPU_SR_Restore>
   114e8:	e1a00004 	mov	r0, r4
   114ec:	e8bd81f0 	pop	{r4, r5, r6, r7, r8, pc}
   114f0:	e1d540b8 	ldrh	r4, [r5, #8]
   114f4:	e0073004 	and	r3, r7, r4
   114f8:	e1530007 	cmp	r3, r7
   114fc:	1afffff5 	bne	114d8 <OSFlagAccept+0x88>
   11500:	e3580001 	cmp	r8, #1
   11504:	01c44007 	biceq	r4, r4, r7
   11508:	01c540b8 	strheq	r4, [r5, #8]
   1150c:	eafffff4 	b	114e4 <OSFlagAccept+0x94>
   11510:	e1d540b8 	ldrh	r4, [r5, #8]
   11514:	e1d77004 	bics	r7, r7, r4
   11518:	0affffee 	beq	114d8 <OSFlagAccept+0x88>
   1151c:	e3580001 	cmp	r8, #1
   11520:	01874004 	orreq	r4, r7, r4
   11524:	01c540b8 	strheq	r4, [r5, #8]
   11528:	eaffffed 	b	114e4 <OSFlagAccept+0x94>
   1152c:	e1d540b8 	ldrh	r4, [r5, #8]
   11530:	e1c73004 	bic	r3, r7, r4
   11534:	e1530007 	cmp	r3, r7
   11538:	1affffe6 	bne	114d8 <OSFlagAccept+0x88>
   1153c:	eafffff6 	b	1151c <OSFlagAccept+0xcc>
   11540:	ebfffc94 	bl	10798 <OS_CPU_SR_Restore>
   11544:	e3a04000 	mov	r4, #0
   11548:	e3e03068 	mvn	r3, #104	; 0x68
   1154c:	e5c63000 	strb	r3, [r6]
   11550:	eaffffcb 	b	11484 <OSFlagAccept+0x34>

00011554 <OSFlagCreate>:
   11554:	e92d40f8 	push	{r3, r4, r5, r6, r7, lr}
   11558:	e3063535 	movw	r3, #25909	; 0x6535
   1155c:	e1a06001 	mov	r6, r1
   11560:	e3403001 	movt	r3, #1
   11564:	e5d35000 	ldrb	r5, [r3]
   11568:	e3550000 	cmp	r5, #0
   1156c:	1a000010 	bne	115b4 <OSFlagCreate+0x60>
   11570:	e1a07000 	mov	r7, r0
   11574:	ebfffc7f 	bl	10778 <OS_CPU_SR_Save>
   11578:	e30731a4 	movw	r3, #29092	; 0x71a4
   1157c:	e3403001 	movt	r3, #1
   11580:	e5934000 	ldr	r4, [r3]
   11584:	e3540000 	cmp	r4, #0
   11588:	0a00000d 	beq	115c4 <OSFlagCreate+0x70>
   1158c:	e5941004 	ldr	r1, [r4, #4]
   11590:	e3a02005 	mov	r2, #5
   11594:	e5831000 	str	r1, [r3]
   11598:	e1c470b8 	strh	r7, [r4, #8]
   1159c:	e5845004 	str	r5, [r4, #4]
   115a0:	e5c42000 	strb	r2, [r4]
   115a4:	ebfffc7b 	bl	10798 <OS_CPU_SR_Restore>
   115a8:	e5c65000 	strb	r5, [r6]
   115ac:	e1a00004 	mov	r0, r4
   115b0:	e8bd80f8 	pop	{r3, r4, r5, r6, r7, pc}
   115b4:	e3e03072 	mvn	r3, #114	; 0x72
   115b8:	e3a00000 	mov	r0, #0
   115bc:	e5c13000 	strb	r3, [r1]
   115c0:	e8bd80f8 	pop	{r3, r4, r5, r6, r7, pc}
   115c4:	ebfffc73 	bl	10798 <OS_CPU_SR_Restore>
   115c8:	e3e03065 	mvn	r3, #101	; 0x65
   115cc:	e1a00004 	mov	r0, r4
   115d0:	e5c63000 	strb	r3, [r6]
   115d4:	e8bd80f8 	pop	{r3, r4, r5, r6, r7, pc}

000115d8 <OSFlagDel>:
   115d8:	e3063535 	movw	r3, #25909	; 0x6535
   115dc:	e92d41f0 	push	{r4, r5, r6, r7, r8, lr}
   115e0:	e3403001 	movt	r3, #1
   115e4:	e1a04000 	mov	r4, r0
   115e8:	e24dd008 	sub	sp, sp, #8
   115ec:	e1a05002 	mov	r5, r2
   115f0:	e5d33000 	ldrb	r3, [r3]
   115f4:	e3530000 	cmp	r3, #0
   115f8:	1a00000b 	bne	1162c <OSFlagDel+0x54>
   115fc:	e3500000 	cmp	r0, #0
   11600:	03e03069 	mvneq	r3, #105	; 0x69
   11604:	05c23000 	strbeq	r3, [r2]
   11608:	0a000005 	beq	11624 <OSFlagDel+0x4c>
   1160c:	e5d43000 	ldrb	r3, [r4]
   11610:	e3530005 	cmp	r3, #5
   11614:	0a000008 	beq	1163c <OSFlagDel+0x64>
   11618:	e3a03001 	mov	r3, #1
   1161c:	e1a00004 	mov	r0, r4
   11620:	e5c23000 	strb	r3, [r2]
   11624:	e28dd008 	add	sp, sp, #8
   11628:	e8bd81f0 	pop	{r4, r5, r6, r7, r8, pc}
   1162c:	e3e03073 	mvn	r3, #115	; 0x73
   11630:	e5c23000 	strb	r3, [r2]
   11634:	e28dd008 	add	sp, sp, #8
   11638:	e8bd81f0 	pop	{r4, r5, r6, r7, r8, pc}
   1163c:	e58d1004 	str	r1, [sp, #4]
   11640:	ebfffc4c 	bl	10778 <OS_CPU_SR_Save>
   11644:	e5946004 	ldr	r6, [r4, #4]
   11648:	e1a08000 	mov	r8, r0
   1164c:	e59d1004 	ldr	r1, [sp, #4]
   11650:	e3560000 	cmp	r6, #0
   11654:	0a000024 	beq	116ec <OSFlagDel+0x114>
   11658:	e3510000 	cmp	r1, #0
   1165c:	0a00001d 	beq	116d8 <OSFlagDel+0x100>
   11660:	e3510001 	cmp	r1, #1
   11664:	1a000015 	bne	116c0 <OSFlagDel+0xe8>
   11668:	e1a07001 	mov	r7, r1
   1166c:	e1a00006 	mov	r0, r6
   11670:	e3a01000 	mov	r1, #0
   11674:	ebfffce5 	bl	10a10 <OS_FlagTaskRdy>
   11678:	e5966000 	ldr	r6, [r6]
   1167c:	e3560000 	cmp	r6, #0
   11680:	1afffff9 	bne	1166c <OSFlagDel+0x94>
   11684:	e30731a4 	movw	r3, #29092	; 0x71a4
   11688:	e3a02000 	mov	r2, #0
   1168c:	e3403001 	movt	r3, #1
   11690:	e5c42000 	strb	r2, [r4]
   11694:	e1a00008 	mov	r0, r8
   11698:	e5932000 	ldr	r2, [r3]
   1169c:	e5842004 	str	r2, [r4, #4]
   116a0:	e5834000 	str	r4, [r3]
   116a4:	ebfffc3b 	bl	10798 <OS_CPU_SR_Restore>
   116a8:	e3570001 	cmp	r7, #1
   116ac:	0a000014 	beq	11704 <OSFlagDel+0x12c>
   116b0:	e3a04000 	mov	r4, #0
   116b4:	e5c54000 	strb	r4, [r5]
   116b8:	e1a00004 	mov	r0, r4
   116bc:	eaffffd8 	b	11624 <OSFlagDel+0x4c>
   116c0:	e1a00008 	mov	r0, r8
   116c4:	ebfffc33 	bl	10798 <OS_CPU_SR_Restore>
   116c8:	e3a03007 	mov	r3, #7
   116cc:	e1a00004 	mov	r0, r4
   116d0:	e5c53000 	strb	r3, [r5]
   116d4:	eaffffd2 	b	11624 <OSFlagDel+0x4c>
   116d8:	ebfffc2e 	bl	10798 <OS_CPU_SR_Restore>
   116dc:	e3a03008 	mov	r3, #8
   116e0:	e1a00004 	mov	r0, r4
   116e4:	e5c53000 	strb	r3, [r5]
   116e8:	eaffffcd 	b	11624 <OSFlagDel+0x4c>
   116ec:	e3510000 	cmp	r1, #0
   116f0:	0a000005 	beq	1170c <OSFlagDel+0x134>
   116f4:	e3510001 	cmp	r1, #1
   116f8:	1afffff0 	bne	116c0 <OSFlagDel+0xe8>
   116fc:	e1a07006 	mov	r7, r6
   11700:	eaffffdf 	b	11684 <OSFlagDel+0xac>
   11704:	ebfffe0e 	bl	10f44 <OS_Sched>
   11708:	eaffffe8 	b	116b0 <OSFlagDel+0xd8>
   1170c:	e30731a4 	movw	r3, #29092	; 0x71a4
   11710:	e5c41000 	strb	r1, [r4]
   11714:	e3403001 	movt	r3, #1
   11718:	e58d1004 	str	r1, [sp, #4]
   1171c:	e5932000 	ldr	r2, [r3]
   11720:	e5842004 	str	r2, [r4, #4]
   11724:	e5834000 	str	r4, [r3]
   11728:	ebfffc1a 	bl	10798 <OS_CPU_SR_Restore>
   1172c:	e59d1004 	ldr	r1, [sp, #4]
   11730:	e5c51000 	strb	r1, [r5]
   11734:	e1a00001 	mov	r0, r1
   11738:	eaffffb9 	b	11624 <OSFlagDel+0x4c>

0001173c <OSFlagPend>:
   1173c:	e306c535 	movw	ip, #25909	; 0x6535
   11740:	e92d47f0 	push	{r4, r5, r6, r7, r8, r9, sl, lr}
   11744:	e340c001 	movt	ip, #1
   11748:	e1a05000 	mov	r5, r0
   1174c:	e24dd020 	sub	sp, sp, #32
   11750:	e5dc0000 	ldrb	r0, [ip]
   11754:	e3500000 	cmp	r0, #0
   11758:	1a00001b 	bne	117cc <OSFlagPend+0x90>
   1175c:	e3550000 	cmp	r5, #0
   11760:	0a000020 	beq	117e8 <OSFlagPend+0xac>
   11764:	e1a06002 	mov	r6, r2
   11768:	e5d52000 	ldrb	r2, [r5]
   1176c:	e3520005 	cmp	r2, #5
   11770:	0a000006 	beq	11790 <OSFlagPend+0x54>
   11774:	e59d2040 	ldr	r2, [sp, #64]	; 0x40
   11778:	e3a03001 	mov	r3, #1
   1177c:	e1a04000 	mov	r4, r0
   11780:	e5c23000 	strb	r3, [r2]
   11784:	e1a00004 	mov	r0, r4
   11788:	e28dd020 	add	sp, sp, #32
   1178c:	e8bd87f0 	pop	{r4, r5, r6, r7, r8, r9, sl, pc}
   11790:	e3160080 	tst	r6, #128	; 0x80
   11794:	e1a07001 	mov	r7, r1
   11798:	1206607f 	andne	r6, r6, #127	; 0x7f
   1179c:	e1a08003 	mov	r8, r3
   117a0:	13a0a001 	movne	sl, #1
   117a4:	01a0a000 	moveq	sl, r0
   117a8:	ebfffbf2 	bl	10778 <OS_CPU_SR_Save>
   117ac:	e1a09000 	mov	r9, r0
   117b0:	e3560003 	cmp	r6, #3
   117b4:	979ff106 	ldrls	pc, [pc, r6, lsl #2]
   117b8:	ea000032 	b	11888 <OSFlagPend+0x14c>
   117bc:	0001182c 	andeq	r1, r1, ip, lsr #16
   117c0:	0001184c 	andeq	r1, r1, ip, asr #16
   117c4:	00011868 	andeq	r1, r1, r8, ror #16
   117c8:	000117fc 	strdeq	r1, [r1], -ip
   117cc:	e59d2040 	ldr	r2, [sp, #64]	; 0x40
   117d0:	e3a04000 	mov	r4, #0
   117d4:	e3a03002 	mov	r3, #2
   117d8:	e1a00004 	mov	r0, r4
   117dc:	e5c23000 	strb	r3, [r2]
   117e0:	e28dd020 	add	sp, sp, #32
   117e4:	e8bd87f0 	pop	{r4, r5, r6, r7, r8, r9, sl, pc}
   117e8:	e59d2040 	ldr	r2, [sp, #64]	; 0x40
   117ec:	e3e03069 	mvn	r3, #105	; 0x69
   117f0:	e1a04005 	mov	r4, r5
   117f4:	e5c23000 	strb	r3, [r2]
   117f8:	eaffffe1 	b	11784 <OSFlagPend+0x48>
   117fc:	e1d540b8 	ldrh	r4, [r5, #8]
   11800:	e0173004 	ands	r3, r7, r4
   11804:	0a000061 	beq	11990 <OSFlagPend+0x254>
   11808:	e35a0001 	cmp	sl, #1
   1180c:	01c44003 	biceq	r4, r4, r3
   11810:	01c540b8 	strheq	r4, [r5, #8]
   11814:	e1a00009 	mov	r0, r9
   11818:	ebfffbde 	bl	10798 <OS_CPU_SR_Restore>
   1181c:	e59d2040 	ldr	r2, [sp, #64]	; 0x40
   11820:	e3a03000 	mov	r3, #0
   11824:	e5c23000 	strb	r3, [r2]
   11828:	eaffffd5 	b	11784 <OSFlagPend+0x48>
   1182c:	e1d540b8 	ldrh	r4, [r5, #8]
   11830:	e1c73004 	bic	r3, r7, r4
   11834:	e1530007 	cmp	r3, r7
   11838:	1a000018 	bne	118a0 <OSFlagPend+0x164>
   1183c:	e35a0001 	cmp	sl, #1
   11840:	01874004 	orreq	r4, r7, r4
   11844:	01c540b8 	strheq	r4, [r5, #8]
   11848:	eafffff1 	b	11814 <OSFlagPend+0xd8>
   1184c:	e1d540b8 	ldrh	r4, [r5, #8]
   11850:	e1d73004 	bics	r3, r7, r4
   11854:	0a000044 	beq	1196c <OSFlagPend+0x230>
   11858:	e35a0001 	cmp	sl, #1
   1185c:	01834004 	orreq	r4, r3, r4
   11860:	01c540b8 	strheq	r4, [r5, #8]
   11864:	eaffffea 	b	11814 <OSFlagPend+0xd8>
   11868:	e1d540b8 	ldrh	r4, [r5, #8]
   1186c:	e0073004 	and	r3, r7, r4
   11870:	e1530007 	cmp	r3, r7
   11874:	1a000033 	bne	11948 <OSFlagPend+0x20c>
   11878:	e35a0001 	cmp	sl, #1
   1187c:	01c44007 	biceq	r4, r4, r7
   11880:	01c540b8 	strheq	r4, [r5, #8]
   11884:	eaffffe2 	b	11814 <OSFlagPend+0xd8>
   11888:	ebfffbc2 	bl	10798 <OS_CPU_SR_Restore>
   1188c:	e59d2040 	ldr	r2, [sp, #64]	; 0x40
   11890:	e3e03068 	mvn	r3, #104	; 0x68
   11894:	e3a04000 	mov	r4, #0
   11898:	e5c23000 	strb	r3, [r2]
   1189c:	eaffffb8 	b	11784 <OSFlagPend+0x48>
   118a0:	e1a00005 	mov	r0, r5
   118a4:	e58d8000 	str	r8, [sp]
   118a8:	e1a02007 	mov	r2, r7
   118ac:	e28d100c 	add	r1, sp, #12
   118b0:	e3a03000 	mov	r3, #0
   118b4:	ebfffc30 	bl	1097c <OS_FlagBlock>
   118b8:	e1a00009 	mov	r0, r9
   118bc:	ebfffbb5 	bl	10798 <OS_CPU_SR_Restore>
   118c0:	ebfffd9f 	bl	10f44 <OS_Sched>
   118c4:	ebfffbab 	bl	10778 <OS_CPU_SR_Save>
   118c8:	e3063538 	movw	r3, #25912	; 0x6538
   118cc:	e3403001 	movt	r3, #1
   118d0:	e5933000 	ldr	r3, [r3]
   118d4:	e5d3202c 	ldrb	r2, [r3, #44]	; 0x2c
   118d8:	e3120020 	tst	r2, #32
   118dc:	0a000011 	beq	11928 <OSFlagPend+0x1ec>
   118e0:	e59d1010 	ldr	r1, [sp, #16]
   118e4:	e59d200c 	ldr	r2, [sp, #12]
   118e8:	e3510000 	cmp	r1, #0
   118ec:	0a000041 	beq	119f8 <OSFlagPend+0x2bc>
   118f0:	e3520000 	cmp	r2, #0
   118f4:	e5812000 	str	r2, [r1]
   118f8:	0a000000 	beq	11900 <OSFlagPend+0x1c4>
   118fc:	e5821004 	str	r1, [r2, #4]
   11900:	e59d1014 	ldr	r1, [sp, #20]
   11904:	e3a02000 	mov	r2, #0
   11908:	e1a04002 	mov	r4, r2
   1190c:	e5812024 	str	r2, [r1, #36]	; 0x24
   11910:	e5c3202c 	strb	r2, [r3, #44]	; 0x2c
   11914:	ebfffb9f 	bl	10798 <OS_CPU_SR_Restore>
   11918:	e59d2040 	ldr	r2, [sp, #64]	; 0x40
   1191c:	e3a0300a 	mov	r3, #10
   11920:	e5c23000 	strb	r3, [r2]
   11924:	eaffff96 	b	11784 <OSFlagPend+0x48>
   11928:	e35a0001 	cmp	sl, #1
   1192c:	0a000020 	beq	119b4 <OSFlagPend+0x278>
   11930:	e1d540b8 	ldrh	r4, [r5, #8]
   11934:	ebfffb97 	bl	10798 <OS_CPU_SR_Restore>
   11938:	e59d2040 	ldr	r2, [sp, #64]	; 0x40
   1193c:	e3a03000 	mov	r3, #0
   11940:	e5c23000 	strb	r3, [r2]
   11944:	eaffff8e 	b	11784 <OSFlagPend+0x48>
   11948:	e1a00005 	mov	r0, r5
   1194c:	e58d8000 	str	r8, [sp]
   11950:	e1a02007 	mov	r2, r7
   11954:	e28d100c 	add	r1, sp, #12
   11958:	e3a03002 	mov	r3, #2
   1195c:	ebfffc06 	bl	1097c <OS_FlagBlock>
   11960:	e1a00009 	mov	r0, r9
   11964:	ebfffb8b 	bl	10798 <OS_CPU_SR_Restore>
   11968:	eaffffd4 	b	118c0 <OSFlagPend+0x184>
   1196c:	e1a00005 	mov	r0, r5
   11970:	e58d8000 	str	r8, [sp]
   11974:	e1a02007 	mov	r2, r7
   11978:	e28d100c 	add	r1, sp, #12
   1197c:	e3a03001 	mov	r3, #1
   11980:	ebfffbfd 	bl	1097c <OS_FlagBlock>
   11984:	e1a00009 	mov	r0, r9
   11988:	ebfffb82 	bl	10798 <OS_CPU_SR_Restore>
   1198c:	eaffffcb 	b	118c0 <OSFlagPend+0x184>
   11990:	e1a00005 	mov	r0, r5
   11994:	e58d8000 	str	r8, [sp]
   11998:	e1a02007 	mov	r2, r7
   1199c:	e28d100c 	add	r1, sp, #12
   119a0:	e3a03003 	mov	r3, #3
   119a4:	ebfffbf4 	bl	1097c <OS_FlagBlock>
   119a8:	e1a00009 	mov	r0, r9
   119ac:	ebfffb79 	bl	10798 <OS_CPU_SR_Restore>
   119b0:	eaffffc2 	b	118c0 <OSFlagPend+0x184>
   119b4:	e3560003 	cmp	r6, #3
   119b8:	979ff106 	ldrls	pc, [pc, r6, lsl #2]
   119bc:	eaffffdb 	b	11930 <OSFlagPend+0x1f4>
   119c0:	000119e4 	andeq	r1, r1, r4, ror #19
   119c4:	000119e4 	andeq	r1, r1, r4, ror #19
   119c8:	000119d0 	ldrdeq	r1, [r1], -r0
   119cc:	000119d0 	ldrdeq	r1, [r1], -r0
   119d0:	e1d342b8 	ldrh	r4, [r3, #40]	; 0x28
   119d4:	e1d530b8 	ldrh	r3, [r5, #8]
   119d8:	e1c34004 	bic	r4, r3, r4
   119dc:	e1c540b8 	strh	r4, [r5, #8]
   119e0:	eaffffd3 	b	11934 <OSFlagPend+0x1f8>
   119e4:	e1d342b8 	ldrh	r4, [r3, #40]	; 0x28
   119e8:	e1d530b8 	ldrh	r3, [r5, #8]
   119ec:	e1844003 	orr	r4, r4, r3
   119f0:	e1c540b8 	strh	r4, [r5, #8]
   119f4:	eaffffce 	b	11934 <OSFlagPend+0x1f8>
   119f8:	e59dc018 	ldr	ip, [sp, #24]
   119fc:	e3520000 	cmp	r2, #0
   11a00:	e58c2004 	str	r2, [ip, #4]
   11a04:	1affffbc 	bne	118fc <OSFlagPend+0x1c0>
   11a08:	eaffffbc 	b	11900 <OSFlagPend+0x1c4>

00011a0c <OSFlagPost>:
   11a0c:	e3500000 	cmp	r0, #0
   11a10:	0a000047 	beq	11b34 <OSFlagPost+0x128>
   11a14:	e5d0c000 	ldrb	ip, [r0]
   11a18:	e35c0005 	cmp	ip, #5
   11a1c:	0a000003 	beq	11a30 <OSFlagPost+0x24>
   11a20:	e3a02001 	mov	r2, #1
   11a24:	e3a00000 	mov	r0, #0
   11a28:	e5c32000 	strb	r2, [r3]
   11a2c:	e12fff1e 	bx	lr
   11a30:	e92d41f0 	push	{r4, r5, r6, r7, r8, lr}
   11a34:	e1a04002 	mov	r4, r2
   11a38:	e1a06003 	mov	r6, r3
   11a3c:	e1a07001 	mov	r7, r1
   11a40:	e1a05000 	mov	r5, r0
   11a44:	ebfffb4b 	bl	10778 <OS_CPU_SR_Save>
   11a48:	e3540000 	cmp	r4, #0
   11a4c:	e1a08000 	mov	r8, r0
   11a50:	0a00003f 	beq	11b54 <OSFlagPost+0x148>
   11a54:	e3540001 	cmp	r4, #1
   11a58:	1a000038 	bne	11b40 <OSFlagPost+0x134>
   11a5c:	e1d510b8 	ldrh	r1, [r5, #8]
   11a60:	e1871001 	orr	r1, r7, r1
   11a64:	e1c510b8 	strh	r1, [r5, #8]
   11a68:	e5954004 	ldr	r4, [r5, #4]
   11a6c:	e3540000 	cmp	r4, #0
   11a70:	0a00003d 	beq	11b6c <OSFlagPost+0x160>
   11a74:	e3a07000 	mov	r7, #0
   11a78:	e5d42012 	ldrb	r2, [r4, #18]
   11a7c:	e3520003 	cmp	r2, #3
   11a80:	979ff102 	ldrls	pc, [pc, r2, lsl #2]
   11a84:	ea000007 	b	11aa8 <OSFlagPost+0x9c>
   11a88:	00011b1c 	andeq	r1, r1, ip, lsl fp
   11a8c:	00011af8 	strdeq	r1, [r1], -r8
   11a90:	00011ae0 	andeq	r1, r1, r0, ror #21
   11a94:	00011a98 	muleq	r1, r8, sl
   11a98:	e1d431b0 	ldrh	r3, [r4, #16]
   11a9c:	e1d510b8 	ldrh	r1, [r5, #8]
   11aa0:	e0131001 	ands	r1, r3, r1
   11aa4:	1a000017 	bne	11b08 <OSFlagPost+0xfc>
   11aa8:	e5944000 	ldr	r4, [r4]
   11aac:	e3540000 	cmp	r4, #0
   11ab0:	1afffff0 	bne	11a78 <OSFlagPost+0x6c>
   11ab4:	e1a00008 	mov	r0, r8
   11ab8:	ebfffb36 	bl	10798 <OS_CPU_SR_Restore>
   11abc:	e3570001 	cmp	r7, #1
   11ac0:	0a000027 	beq	11b64 <OSFlagPost+0x158>
   11ac4:	ebfffb2b 	bl	10778 <OS_CPU_SR_Save>
   11ac8:	e1d540b8 	ldrh	r4, [r5, #8]
   11acc:	ebfffb31 	bl	10798 <OS_CPU_SR_Restore>
   11ad0:	e3a03000 	mov	r3, #0
   11ad4:	e1a00004 	mov	r0, r4
   11ad8:	e5c63000 	strb	r3, [r6]
   11adc:	e8bd81f0 	pop	{r4, r5, r6, r7, r8, pc}
   11ae0:	e1d411b0 	ldrh	r1, [r4, #16]
   11ae4:	e1d530b8 	ldrh	r3, [r5, #8]
   11ae8:	e0033001 	and	r3, r3, r1
   11aec:	e1510003 	cmp	r1, r3
   11af0:	1affffec 	bne	11aa8 <OSFlagPost+0x9c>
   11af4:	ea000003 	b	11b08 <OSFlagPost+0xfc>
   11af8:	e1d510b8 	ldrh	r1, [r5, #8]
   11afc:	e1d431b0 	ldrh	r3, [r4, #16]
   11b00:	e1d31001 	bics	r1, r3, r1
   11b04:	0affffe7 	beq	11aa8 <OSFlagPost+0x9c>
   11b08:	e1a00004 	mov	r0, r4
   11b0c:	ebfffbbf 	bl	10a10 <OS_FlagTaskRdy>
   11b10:	e3500001 	cmp	r0, #1
   11b14:	03a07001 	moveq	r7, #1
   11b18:	eaffffe2 	b	11aa8 <OSFlagPost+0x9c>
   11b1c:	e1d411b0 	ldrh	r1, [r4, #16]
   11b20:	e1d530b8 	ldrh	r3, [r5, #8]
   11b24:	e1c13003 	bic	r3, r1, r3
   11b28:	e1510003 	cmp	r1, r3
   11b2c:	1affffdd 	bne	11aa8 <OSFlagPost+0x9c>
   11b30:	eafffff4 	b	11b08 <OSFlagPost+0xfc>
   11b34:	e3e02069 	mvn	r2, #105	; 0x69
   11b38:	e5c32000 	strb	r2, [r3]
   11b3c:	e12fff1e 	bx	lr
   11b40:	ebfffb14 	bl	10798 <OS_CPU_SR_Restore>
   11b44:	e3e03066 	mvn	r3, #102	; 0x66
   11b48:	e3a00000 	mov	r0, #0
   11b4c:	e5c63000 	strb	r3, [r6]
   11b50:	e8bd81f0 	pop	{r4, r5, r6, r7, r8, pc}
   11b54:	e1d510b8 	ldrh	r1, [r5, #8]
   11b58:	e1c11007 	bic	r1, r1, r7
   11b5c:	e1c510b8 	strh	r1, [r5, #8]
   11b60:	eaffffc0 	b	11a68 <OSFlagPost+0x5c>
   11b64:	ebfffcf6 	bl	10f44 <OS_Sched>
   11b68:	eaffffd5 	b	11ac4 <OSFlagPost+0xb8>
   11b6c:	e1a00008 	mov	r0, r8
   11b70:	ebfffb08 	bl	10798 <OS_CPU_SR_Restore>
   11b74:	eaffffd2 	b	11ac4 <OSFlagPost+0xb8>

00011b78 <OSFlagQuery>:
   11b78:	e3500000 	cmp	r0, #0
   11b7c:	e92d4038 	push	{r3, r4, r5, lr}
   11b80:	0a00000f 	beq	11bc4 <OSFlagQuery+0x4c>
   11b84:	e5d03000 	ldrb	r3, [r0]
   11b88:	e3530005 	cmp	r3, #5
   11b8c:	0a000003 	beq	11ba0 <OSFlagQuery+0x28>
   11b90:	e3a03001 	mov	r3, #1
   11b94:	e3a00000 	mov	r0, #0
   11b98:	e5c13000 	strb	r3, [r1]
   11b9c:	e8bd8038 	pop	{r3, r4, r5, pc}
   11ba0:	e1a04000 	mov	r4, r0
   11ba4:	e1a05001 	mov	r5, r1
   11ba8:	ebfffaf2 	bl	10778 <OS_CPU_SR_Save>
   11bac:	e1d440b8 	ldrh	r4, [r4, #8]
   11bb0:	ebfffaf8 	bl	10798 <OS_CPU_SR_Restore>
   11bb4:	e3a03000 	mov	r3, #0
   11bb8:	e5c53000 	strb	r3, [r5]
   11bbc:	e1a00004 	mov	r0, r4
   11bc0:	e8bd8038 	pop	{r3, r4, r5, pc}
   11bc4:	e3e03069 	mvn	r3, #105	; 0x69
   11bc8:	e5c13000 	strb	r3, [r1]
   11bcc:	e8bd8038 	pop	{r3, r4, r5, pc}

00011bd0 <OS_FlagInit>:
   11bd0:	e3053be8 	movw	r3, #23528	; 0x5be8
   11bd4:	e30701a4 	movw	r0, #29092	; 0x71a4
   11bd8:	e3403001 	movt	r3, #1
   11bdc:	e3400001 	movt	r0, #1
   11be0:	e1a01003 	mov	r1, r3
   11be4:	e3a02000 	mov	r2, #0
   11be8:	e52de004 	push	{lr}		; (str lr, [sp, #-4]!)
   11bec:	e4c1200c 	strb	r2, [r1], #12
   11bf0:	e283c018 	add	ip, r3, #24
   11bf4:	e283e024 	add	lr, r3, #36	; 0x24
   11bf8:	e583c010 	str	ip, [r3, #16]
   11bfc:	e583e01c 	str	lr, [r3, #28]
   11c00:	e283c030 	add	ip, r3, #48	; 0x30
   11c04:	e5803000 	str	r3, [r0]
   11c08:	e583c028 	str	ip, [r3, #40]	; 0x28
   11c0c:	e5831004 	str	r1, [r3, #4]
   11c10:	e5c3200c 	strb	r2, [r3, #12]
   11c14:	e5c32018 	strb	r2, [r3, #24]
   11c18:	e5c32024 	strb	r2, [r3, #36]	; 0x24
   11c1c:	e5832034 	str	r2, [r3, #52]	; 0x34
   11c20:	e49df004 	pop	{pc}		; (ldr pc, [sp], #4)

00011c24 <OS_FlagUnlink>:
   11c24:	e5902004 	ldr	r2, [r0, #4]
   11c28:	e5903000 	ldr	r3, [r0]
   11c2c:	e3520000 	cmp	r2, #0
   11c30:	0a000007 	beq	11c54 <OS_FlagUnlink+0x30>
   11c34:	e3530000 	cmp	r3, #0
   11c38:	e5823000 	str	r3, [r2]
   11c3c:	0a000000 	beq	11c44 <OS_FlagUnlink+0x20>
   11c40:	e5832004 	str	r2, [r3, #4]
   11c44:	e5903008 	ldr	r3, [r0, #8]
   11c48:	e3a02000 	mov	r2, #0
   11c4c:	e5832024 	str	r2, [r3, #36]	; 0x24
   11c50:	e12fff1e 	bx	lr
   11c54:	e590100c 	ldr	r1, [r0, #12]
   11c58:	e3530000 	cmp	r3, #0
   11c5c:	e5813004 	str	r3, [r1, #4]
   11c60:	1afffff6 	bne	11c40 <OS_FlagUnlink+0x1c>
   11c64:	eafffff6 	b	11c44 <OS_FlagUnlink+0x20>

00011c68 <OSMboxAccept>:
   11c68:	e3500000 	cmp	r0, #0
   11c6c:	012fff1e 	bxeq	lr
   11c70:	e92d4038 	push	{r3, r4, r5, lr}
   11c74:	e5d03000 	ldrb	r3, [r0]
   11c78:	e3530001 	cmp	r3, #1
   11c7c:	1a000007 	bne	11ca0 <OSMboxAccept+0x38>
   11c80:	e1a04000 	mov	r4, r0
   11c84:	ebfffabb 	bl	10778 <OS_CPU_SR_Save>
   11c88:	e3a03000 	mov	r3, #0
   11c8c:	e5945004 	ldr	r5, [r4, #4]
   11c90:	e5843004 	str	r3, [r4, #4]
   11c94:	ebfffabf 	bl	10798 <OS_CPU_SR_Restore>
   11c98:	e1a00005 	mov	r0, r5
   11c9c:	e8bd8038 	pop	{r3, r4, r5, pc}
   11ca0:	e3a00000 	mov	r0, #0
   11ca4:	e8bd8038 	pop	{r3, r4, r5, pc}

00011ca8 <OSMboxCreate>:
   11ca8:	e3063535 	movw	r3, #25909	; 0x6535
   11cac:	e92d4070 	push	{r4, r5, r6, lr}
   11cb0:	e3403001 	movt	r3, #1
   11cb4:	e5d35000 	ldrb	r5, [r3]
   11cb8:	e3550000 	cmp	r5, #0
   11cbc:	1a000018 	bne	11d24 <OSMboxCreate+0x7c>
   11cc0:	e1a06000 	mov	r6, r0
   11cc4:	ebfffaab 	bl	10778 <OS_CPU_SR_Save>
   11cc8:	e3063530 	movw	r3, #25904	; 0x6530
   11ccc:	e3403001 	movt	r3, #1
   11cd0:	e5934000 	ldr	r4, [r3]
   11cd4:	e3540000 	cmp	r4, #0
   11cd8:	0a000013 	beq	11d2c <OSMboxCreate+0x84>
   11cdc:	e5942004 	ldr	r2, [r4, #4]
   11ce0:	e5832000 	str	r2, [r3]
   11ce4:	ebfffaab 	bl	10798 <OS_CPU_SR_Restore>
   11ce8:	e3a03001 	mov	r3, #1
   11cec:	e1c450b2 	strh	r5, [r4, #2]
   11cf0:	e5846004 	str	r6, [r4, #4]
   11cf4:	e1a00004 	mov	r0, r4
   11cf8:	e5c45001 	strb	r5, [r4, #1]
   11cfc:	e5c45008 	strb	r5, [r4, #8]
   11d00:	e5c45009 	strb	r5, [r4, #9]
   11d04:	e5c4500a 	strb	r5, [r4, #10]
   11d08:	e5c4500b 	strb	r5, [r4, #11]
   11d0c:	e5c4500c 	strb	r5, [r4, #12]
   11d10:	e5c4500d 	strb	r5, [r4, #13]
   11d14:	e5c4500e 	strb	r5, [r4, #14]
   11d18:	e5c4500f 	strb	r5, [r4, #15]
   11d1c:	e5c43000 	strb	r3, [r4]
   11d20:	e8bd8070 	pop	{r4, r5, r6, pc}
   11d24:	e3a00000 	mov	r0, #0
   11d28:	e8bd8070 	pop	{r4, r5, r6, pc}
   11d2c:	ebfffa99 	bl	10798 <OS_CPU_SR_Restore>
   11d30:	e1a00004 	mov	r0, r4
   11d34:	e8bd8070 	pop	{r4, r5, r6, pc}

00011d38 <OSMboxDel>:
   11d38:	e3063535 	movw	r3, #25909	; 0x6535
   11d3c:	e92d40f0 	push	{r4, r5, r6, r7, lr}
   11d40:	e3403001 	movt	r3, #1
   11d44:	e1a04000 	mov	r4, r0
   11d48:	e24dd00c 	sub	sp, sp, #12
   11d4c:	e1a05002 	mov	r5, r2
   11d50:	e5d33000 	ldrb	r3, [r3]
   11d54:	e3530000 	cmp	r3, #0
   11d58:	1a00000b 	bne	11d8c <OSMboxDel+0x54>
   11d5c:	e3500000 	cmp	r0, #0
   11d60:	03a03004 	moveq	r3, #4
   11d64:	05c23000 	strbeq	r3, [r2]
   11d68:	0a000005 	beq	11d84 <OSMboxDel+0x4c>
   11d6c:	e5d43000 	ldrb	r3, [r4]
   11d70:	e3530001 	cmp	r3, #1
   11d74:	0a000008 	beq	11d9c <OSMboxDel+0x64>
   11d78:	e3a03001 	mov	r3, #1
   11d7c:	e1a00004 	mov	r0, r4
   11d80:	e5c23000 	strb	r3, [r2]
   11d84:	e28dd00c 	add	sp, sp, #12
   11d88:	e8bd80f0 	pop	{r4, r5, r6, r7, pc}
   11d8c:	e3e03073 	mvn	r3, #115	; 0x73
   11d90:	e5c23000 	strb	r3, [r2]
   11d94:	e28dd00c 	add	sp, sp, #12
   11d98:	e8bd80f0 	pop	{r4, r5, r6, r7, pc}
   11d9c:	e58d1004 	str	r1, [sp, #4]
   11da0:	ebfffa74 	bl	10778 <OS_CPU_SR_Save>
   11da4:	e5d46001 	ldrb	r6, [r4, #1]
   11da8:	e1a07000 	mov	r7, r0
   11dac:	e59d1004 	ldr	r1, [sp, #4]
   11db0:	e3560000 	cmp	r6, #0
   11db4:	0a00000c 	beq	11dec <OSMboxDel+0xb4>
   11db8:	e3510000 	cmp	r1, #0
   11dbc:	0a00001d 	beq	11e38 <OSMboxDel+0x100>
   11dc0:	e3510001 	cmp	r1, #1
   11dc4:	1a00002c 	bne	11e7c <OSMboxDel+0x144>
   11dc8:	e1a06001 	mov	r6, r1
   11dcc:	e1a00004 	mov	r0, r4
   11dd0:	e3a01000 	mov	r1, #0
   11dd4:	e3a02002 	mov	r2, #2
   11dd8:	ebfffbf4 	bl	10db0 <OS_EventTaskRdy>
   11ddc:	e5d43001 	ldrb	r3, [r4, #1]
   11de0:	e3530000 	cmp	r3, #0
   11de4:	1afffff8 	bne	11dcc <OSMboxDel+0x94>
   11de8:	ea000003 	b	11dfc <OSMboxDel+0xc4>
   11dec:	e3510000 	cmp	r1, #0
   11df0:	0a000015 	beq	11e4c <OSMboxDel+0x114>
   11df4:	e3510001 	cmp	r1, #1
   11df8:	1a00001f 	bne	11e7c <OSMboxDel+0x144>
   11dfc:	e3063530 	movw	r3, #25904	; 0x6530
   11e00:	e3a02000 	mov	r2, #0
   11e04:	e3403001 	movt	r3, #1
   11e08:	e5c42000 	strb	r2, [r4]
   11e0c:	e1a00007 	mov	r0, r7
   11e10:	e5932000 	ldr	r2, [r3]
   11e14:	e5842004 	str	r2, [r4, #4]
   11e18:	e5834000 	str	r4, [r3]
   11e1c:	ebfffa5d 	bl	10798 <OS_CPU_SR_Restore>
   11e20:	e3560001 	cmp	r6, #1
   11e24:	0a00001a 	beq	11e94 <OSMboxDel+0x15c>
   11e28:	e3a04000 	mov	r4, #0
   11e2c:	e5c54000 	strb	r4, [r5]
   11e30:	e1a00004 	mov	r0, r4
   11e34:	eaffffd2 	b	11d84 <OSMboxDel+0x4c>
   11e38:	ebfffa56 	bl	10798 <OS_CPU_SR_Restore>
   11e3c:	e3a03008 	mov	r3, #8
   11e40:	e1a00004 	mov	r0, r4
   11e44:	e5c53000 	strb	r3, [r5]
   11e48:	eaffffcd 	b	11d84 <OSMboxDel+0x4c>
   11e4c:	e3063530 	movw	r3, #25904	; 0x6530
   11e50:	e5c41000 	strb	r1, [r4]
   11e54:	e3403001 	movt	r3, #1
   11e58:	e58d1004 	str	r1, [sp, #4]
   11e5c:	e5932000 	ldr	r2, [r3]
   11e60:	e5842004 	str	r2, [r4, #4]
   11e64:	e5834000 	str	r4, [r3]
   11e68:	ebfffa4a 	bl	10798 <OS_CPU_SR_Restore>
   11e6c:	e59d1004 	ldr	r1, [sp, #4]
   11e70:	e5c51000 	strb	r1, [r5]
   11e74:	e1a00001 	mov	r0, r1
   11e78:	eaffffc1 	b	11d84 <OSMboxDel+0x4c>
   11e7c:	e1a00007 	mov	r0, r7
   11e80:	ebfffa44 	bl	10798 <OS_CPU_SR_Restore>
   11e84:	e3a03007 	mov	r3, #7
   11e88:	e1a00004 	mov	r0, r4
   11e8c:	e5c53000 	strb	r3, [r5]
   11e90:	eaffffbb 	b	11d84 <OSMboxDel+0x4c>
   11e94:	ebfffc2a 	bl	10f44 <OS_Sched>
   11e98:	eaffffe2 	b	11e28 <OSMboxDel+0xf0>

00011e9c <OSMboxPend>:
   11e9c:	e92d43f8 	push	{r3, r4, r5, r6, r7, r8, r9, lr}
   11ea0:	e3063535 	movw	r3, #25909	; 0x6535
   11ea4:	e1a07002 	mov	r7, r2
   11ea8:	e3403001 	movt	r3, #1
   11eac:	e5d36000 	ldrb	r6, [r3]
   11eb0:	e3560000 	cmp	r6, #0
   11eb4:	1a00002d 	bne	11f70 <OSMboxPend+0xd4>
   11eb8:	e3500000 	cmp	r0, #0
   11ebc:	e1a05000 	mov	r5, r0
   11ec0:	0a00002e 	beq	11f80 <OSMboxPend+0xe4>
   11ec4:	e5d03000 	ldrb	r3, [r0]
   11ec8:	e3530001 	cmp	r3, #1
   11ecc:	1a00000a 	bne	11efc <OSMboxPend+0x60>
   11ed0:	e1a08001 	mov	r8, r1
   11ed4:	ebfffa27 	bl	10778 <OS_CPU_SR_Save>
   11ed8:	e5954004 	ldr	r4, [r5, #4]
   11edc:	e1a09000 	mov	r9, r0
   11ee0:	e3540000 	cmp	r4, #0
   11ee4:	0a000008 	beq	11f0c <OSMboxPend+0x70>
   11ee8:	e5856004 	str	r6, [r5, #4]
   11eec:	ebfffa29 	bl	10798 <OS_CPU_SR_Restore>
   11ef0:	e5c76000 	strb	r6, [r7]
   11ef4:	e1a00004 	mov	r0, r4
   11ef8:	e8bd83f8 	pop	{r3, r4, r5, r6, r7, r8, r9, pc}
   11efc:	e3a03001 	mov	r3, #1
   11f00:	e1a00006 	mov	r0, r6
   11f04:	e5c23000 	strb	r3, [r2]
   11f08:	e8bd83f8 	pop	{r3, r4, r5, r6, r7, r8, r9, pc}
   11f0c:	e3066538 	movw	r6, #25912	; 0x6538
   11f10:	e1a00005 	mov	r0, r5
   11f14:	e3406001 	movt	r6, #1
   11f18:	e5963000 	ldr	r3, [r6]
   11f1c:	e5d3202c 	ldrb	r2, [r3, #44]	; 0x2c
   11f20:	e1c382ba 	strh	r8, [r3, #42]	; 0x2a
   11f24:	e3822002 	orr	r2, r2, #2
   11f28:	e5c3202c 	strb	r2, [r3, #44]	; 0x2c
   11f2c:	ebfffbca 	bl	10e5c <OS_EventTaskWait>
   11f30:	e1a00009 	mov	r0, r9
   11f34:	ebfffa17 	bl	10798 <OS_CPU_SR_Restore>
   11f38:	ebfffc01 	bl	10f44 <OS_Sched>
   11f3c:	ebfffa0d 	bl	10778 <OS_CPU_SR_Save>
   11f40:	e5963000 	ldr	r3, [r6]
   11f44:	e1a08000 	mov	r8, r0
   11f48:	e5936020 	ldr	r6, [r3, #32]
   11f4c:	e3560000 	cmp	r6, #0
   11f50:	0a00000d 	beq	11f8c <OSMboxPend+0xf0>
   11f54:	e5834020 	str	r4, [r3, #32]
   11f58:	e5c3402c 	strb	r4, [r3, #44]	; 0x2c
   11f5c:	e583401c 	str	r4, [r3, #28]
   11f60:	ebfffa0c 	bl	10798 <OS_CPU_SR_Restore>
   11f64:	e5c74000 	strb	r4, [r7]
   11f68:	e1a00006 	mov	r0, r6
   11f6c:	e8bd83f8 	pop	{r3, r4, r5, r6, r7, r8, r9, pc}
   11f70:	e3a03002 	mov	r3, #2
   11f74:	e3a00000 	mov	r0, #0
   11f78:	e5c23000 	strb	r3, [r2]
   11f7c:	e8bd83f8 	pop	{r3, r4, r5, r6, r7, r8, r9, pc}
   11f80:	e3a03004 	mov	r3, #4
   11f84:	e5c23000 	strb	r3, [r2]
   11f88:	e8bd83f8 	pop	{r3, r4, r5, r6, r7, r8, r9, pc}
   11f8c:	e1a00005 	mov	r0, r5
   11f90:	ebfffbce 	bl	10ed0 <OS_EventTO>
   11f94:	e1a00008 	mov	r0, r8
   11f98:	ebfff9fe 	bl	10798 <OS_CPU_SR_Restore>
   11f9c:	e3a0300a 	mov	r3, #10
   11fa0:	e1a00006 	mov	r0, r6
   11fa4:	e5c73000 	strb	r3, [r7]
   11fa8:	e8bd83f8 	pop	{r3, r4, r5, r6, r7, r8, r9, pc}

00011fac <OSMboxPost>:
   11fac:	e3500000 	cmp	r0, #0
   11fb0:	e92d40f8 	push	{r3, r4, r5, r6, r7, lr}
   11fb4:	03a04004 	moveq	r4, #4
   11fb8:	0a000006 	beq	11fd8 <OSMboxPost+0x2c>
   11fbc:	e3510000 	cmp	r1, #0
   11fc0:	03a04003 	moveq	r4, #3
   11fc4:	0a000003 	beq	11fd8 <OSMboxPost+0x2c>
   11fc8:	e5d03000 	ldrb	r3, [r0]
   11fcc:	e3530001 	cmp	r3, #1
   11fd0:	13a04001 	movne	r4, #1
   11fd4:	0a000001 	beq	11fe0 <OSMboxPost+0x34>
   11fd8:	e1a00004 	mov	r0, r4
   11fdc:	e8bd80f8 	pop	{r3, r4, r5, r6, r7, pc}
   11fe0:	e1a06000 	mov	r6, r0
   11fe4:	e1a05001 	mov	r5, r1
   11fe8:	ebfff9e2 	bl	10778 <OS_CPU_SR_Save>
   11fec:	e1a07000 	mov	r7, r0
   11ff0:	e5d64001 	ldrb	r4, [r6, #1]
   11ff4:	e3540000 	cmp	r4, #0
   11ff8:	1a000005 	bne	12014 <OSMboxPost+0x68>
   11ffc:	e5963004 	ldr	r3, [r6, #4]
   12000:	e3530000 	cmp	r3, #0
   12004:	0a00000b 	beq	12038 <OSMboxPost+0x8c>
   12008:	ebfff9e2 	bl	10798 <OS_CPU_SR_Restore>
   1200c:	e3a04014 	mov	r4, #20
   12010:	eafffff0 	b	11fd8 <OSMboxPost+0x2c>
   12014:	e1a01005 	mov	r1, r5
   12018:	e3a02002 	mov	r2, #2
   1201c:	e1a00006 	mov	r0, r6
   12020:	e3a04000 	mov	r4, #0
   12024:	ebfffb61 	bl	10db0 <OS_EventTaskRdy>
   12028:	e1a00007 	mov	r0, r7
   1202c:	ebfff9d9 	bl	10798 <OS_CPU_SR_Restore>
   12030:	ebfffbc3 	bl	10f44 <OS_Sched>
   12034:	eaffffe7 	b	11fd8 <OSMboxPost+0x2c>
   12038:	e5865004 	str	r5, [r6, #4]
   1203c:	ebfff9d5 	bl	10798 <OS_CPU_SR_Restore>
   12040:	eaffffe4 	b	11fd8 <OSMboxPost+0x2c>

00012044 <OSMboxPostOpt>:
   12044:	e3500000 	cmp	r0, #0
   12048:	e92d41f0 	push	{r4, r5, r6, r7, r8, lr}
   1204c:	03a06004 	moveq	r6, #4
   12050:	0a000006 	beq	12070 <OSMboxPostOpt+0x2c>
   12054:	e3510000 	cmp	r1, #0
   12058:	03a06003 	moveq	r6, #3
   1205c:	0a000003 	beq	12070 <OSMboxPostOpt+0x2c>
   12060:	e5d03000 	ldrb	r3, [r0]
   12064:	e3530001 	cmp	r3, #1
   12068:	13a06001 	movne	r6, #1
   1206c:	0a000001 	beq	12078 <OSMboxPostOpt+0x34>
   12070:	e1a00006 	mov	r0, r6
   12074:	e8bd81f0 	pop	{r4, r5, r6, r7, r8, pc}
   12078:	e1a04000 	mov	r4, r0
   1207c:	e1a07002 	mov	r7, r2
   12080:	e1a05001 	mov	r5, r1
   12084:	ebfff9bb 	bl	10778 <OS_CPU_SR_Save>
   12088:	e1a08000 	mov	r8, r0
   1208c:	e5d46001 	ldrb	r6, [r4, #1]
   12090:	e3560000 	cmp	r6, #0
   12094:	0a00000d 	beq	120d0 <OSMboxPostOpt+0x8c>
   12098:	e3170001 	tst	r7, #1
   1209c:	0a000011 	beq	120e8 <OSMboxPostOpt+0xa4>
   120a0:	e1a00004 	mov	r0, r4
   120a4:	e1a01005 	mov	r1, r5
   120a8:	e3a02002 	mov	r2, #2
   120ac:	ebfffb3f 	bl	10db0 <OS_EventTaskRdy>
   120b0:	e5d43001 	ldrb	r3, [r4, #1]
   120b4:	e3530000 	cmp	r3, #0
   120b8:	1afffff8 	bne	120a0 <OSMboxPostOpt+0x5c>
   120bc:	e1a00008 	mov	r0, r8
   120c0:	e3a06000 	mov	r6, #0
   120c4:	ebfff9b3 	bl	10798 <OS_CPU_SR_Restore>
   120c8:	ebfffb9d 	bl	10f44 <OS_Sched>
   120cc:	eaffffe7 	b	12070 <OSMboxPostOpt+0x2c>
   120d0:	e5943004 	ldr	r3, [r4, #4]
   120d4:	e3530000 	cmp	r3, #0
   120d8:	0a000007 	beq	120fc <OSMboxPostOpt+0xb8>
   120dc:	ebfff9ad 	bl	10798 <OS_CPU_SR_Restore>
   120e0:	e3a06014 	mov	r6, #20
   120e4:	eaffffe1 	b	12070 <OSMboxPostOpt+0x2c>
   120e8:	e1a00004 	mov	r0, r4
   120ec:	e1a01005 	mov	r1, r5
   120f0:	e3a02002 	mov	r2, #2
   120f4:	ebfffb2d 	bl	10db0 <OS_EventTaskRdy>
   120f8:	eaffffef 	b	120bc <OSMboxPostOpt+0x78>
   120fc:	e5845004 	str	r5, [r4, #4]
   12100:	ebfff9a4 	bl	10798 <OS_CPU_SR_Restore>
   12104:	eaffffd9 	b	12070 <OSMboxPostOpt+0x2c>

00012108 <OSMboxQuery>:
   12108:	e3500000 	cmp	r0, #0
   1210c:	0a000005 	beq	12128 <OSMboxQuery+0x20>
   12110:	e92d4038 	push	{r3, r4, r5, lr}
   12114:	e5d03000 	ldrb	r3, [r0]
   12118:	e3530001 	cmp	r3, #1
   1211c:	0a000003 	beq	12130 <OSMboxQuery+0x28>
   12120:	e3a00001 	mov	r0, #1
   12124:	e8bd8038 	pop	{r3, r4, r5, pc}
   12128:	e3a00004 	mov	r0, #4
   1212c:	e12fff1e 	bx	lr
   12130:	e1a04000 	mov	r4, r0
   12134:	e1a05001 	mov	r5, r1
   12138:	ebfff98e 	bl	10778 <OS_CPU_SR_Save>
   1213c:	e5d43001 	ldrb	r3, [r4, #1]
   12140:	e5c5300c 	strb	r3, [r5, #12]
   12144:	e5d43008 	ldrb	r3, [r4, #8]
   12148:	e5c53004 	strb	r3, [r5, #4]
   1214c:	e5d43009 	ldrb	r3, [r4, #9]
   12150:	e5c53005 	strb	r3, [r5, #5]
   12154:	e5d4300a 	ldrb	r3, [r4, #10]
   12158:	e5c53006 	strb	r3, [r5, #6]
   1215c:	e5d4300b 	ldrb	r3, [r4, #11]
   12160:	e5c53007 	strb	r3, [r5, #7]
   12164:	e5d4300c 	ldrb	r3, [r4, #12]
   12168:	e5c53008 	strb	r3, [r5, #8]
   1216c:	e5d4300d 	ldrb	r3, [r4, #13]
   12170:	e5c53009 	strb	r3, [r5, #9]
   12174:	e5d4300e 	ldrb	r3, [r4, #14]
   12178:	e5c5300a 	strb	r3, [r5, #10]
   1217c:	e5d4300f 	ldrb	r3, [r4, #15]
   12180:	e5c5300b 	strb	r3, [r5, #11]
   12184:	e5943004 	ldr	r3, [r4, #4]
   12188:	e5853000 	str	r3, [r5]
   1218c:	ebfff981 	bl	10798 <OS_CPU_SR_Restore>
   12190:	e3a00000 	mov	r0, #0
   12194:	e8bd8038 	pop	{r3, r4, r5, pc}

00012198 <OSMemCreate>:
   12198:	e3500000 	cmp	r0, #0
   1219c:	0a000034 	beq	12274 <OSMemCreate+0xdc>
   121a0:	e3510001 	cmp	r1, #1
   121a4:	9a00002e 	bls	12264 <OSMemCreate+0xcc>
   121a8:	e3520003 	cmp	r2, #3
   121ac:	9a000023 	bls	12240 <OSMemCreate+0xa8>
   121b0:	e92d43f8 	push	{r3, r4, r5, r6, r7, r8, r9, lr}
   121b4:	e1a08003 	mov	r8, r3
   121b8:	e1a05002 	mov	r5, r2
   121bc:	e1a07001 	mov	r7, r1
   121c0:	e1a09000 	mov	r9, r0
   121c4:	ebfff96b 	bl	10778 <OS_CPU_SR_Save>
   121c8:	e30634a0 	movw	r3, #25760	; 0x64a0
   121cc:	e3403001 	movt	r3, #1
   121d0:	e5936000 	ldr	r6, [r3]
   121d4:	e3560000 	cmp	r6, #0
   121d8:	0a00001c 	beq	12250 <OSMemCreate+0xb8>
   121dc:	e5962004 	ldr	r2, [r6, #4]
   121e0:	e1a04009 	mov	r4, r9
   121e4:	e5832000 	str	r2, [r3]
   121e8:	ebfff96a 	bl	10798 <OS_CPU_SR_Restore>
   121ec:	e0891005 	add	r1, r9, r5
   121f0:	e2472001 	sub	r2, r7, #1
   121f4:	e1a0e001 	mov	lr, r1
   121f8:	e3a0c000 	mov	ip, #0
   121fc:	e28cc001 	add	ip, ip, #1
   12200:	e684e005 	str	lr, [r4], r5
   12204:	e15c0002 	cmp	ip, r2
   12208:	e08ee005 	add	lr, lr, r5
   1220c:	1afffffa 	bne	121fc <OSMemCreate+0x64>
   12210:	e2473002 	sub	r3, r7, #2
   12214:	e3a02000 	mov	r2, #0
   12218:	e1a00006 	mov	r0, r6
   1221c:	e0030395 	mul	r3, r5, r3
   12220:	e7812003 	str	r2, [r1, r3]
   12224:	e5869000 	str	r9, [r6]
   12228:	e5869004 	str	r9, [r6, #4]
   1222c:	e5867010 	str	r7, [r6, #16]
   12230:	e586700c 	str	r7, [r6, #12]
   12234:	e5865008 	str	r5, [r6, #8]
   12238:	e5c82000 	strb	r2, [r8]
   1223c:	e8bd83f8 	pop	{r3, r4, r5, r6, r7, r8, r9, pc}
   12240:	e3a02070 	mov	r2, #112	; 0x70
   12244:	e3a00000 	mov	r0, #0
   12248:	e5c32000 	strb	r2, [r3]
   1224c:	e12fff1e 	bx	lr
   12250:	ebfff950 	bl	10798 <OS_CPU_SR_Restore>
   12254:	e3a0306e 	mov	r3, #110	; 0x6e
   12258:	e1a00006 	mov	r0, r6
   1225c:	e5c83000 	strb	r3, [r8]
   12260:	e8bd83f8 	pop	{r3, r4, r5, r6, r7, r8, r9, pc}
   12264:	e3a0206f 	mov	r2, #111	; 0x6f
   12268:	e3a00000 	mov	r0, #0
   1226c:	e5c32000 	strb	r2, [r3]
   12270:	e12fff1e 	bx	lr
   12274:	e3a02076 	mov	r2, #118	; 0x76
   12278:	e5c32000 	strb	r2, [r3]
   1227c:	e12fff1e 	bx	lr

00012280 <OSMemGet>:
   12280:	e3500000 	cmp	r0, #0
   12284:	e92d40f8 	push	{r3, r4, r5, r6, r7, lr}
   12288:	0a000014 	beq	122e0 <OSMemGet+0x60>
   1228c:	e1a04000 	mov	r4, r0
   12290:	e1a07001 	mov	r7, r1
   12294:	ebfff937 	bl	10778 <OS_CPU_SR_Save>
   12298:	e5945010 	ldr	r5, [r4, #16]
   1229c:	e3550000 	cmp	r5, #0
   122a0:	0a000009 	beq	122cc <OSMemGet+0x4c>
   122a4:	e5946004 	ldr	r6, [r4, #4]
   122a8:	e2453001 	sub	r3, r5, #1
   122ac:	e5962000 	ldr	r2, [r6]
   122b0:	e5842004 	str	r2, [r4, #4]
   122b4:	e5843010 	str	r3, [r4, #16]
   122b8:	ebfff936 	bl	10798 <OS_CPU_SR_Restore>
   122bc:	e3a03000 	mov	r3, #0
   122c0:	e1a00006 	mov	r0, r6
   122c4:	e5c73000 	strb	r3, [r7]
   122c8:	e8bd80f8 	pop	{r3, r4, r5, r6, r7, pc}
   122cc:	ebfff931 	bl	10798 <OS_CPU_SR_Restore>
   122d0:	e3a03071 	mov	r3, #113	; 0x71
   122d4:	e1a00005 	mov	r0, r5
   122d8:	e5c73000 	strb	r3, [r7]
   122dc:	e8bd80f8 	pop	{r3, r4, r5, r6, r7, pc}
   122e0:	e3a03074 	mov	r3, #116	; 0x74
   122e4:	e5c13000 	strb	r3, [r1]
   122e8:	e8bd80f8 	pop	{r3, r4, r5, r6, r7, pc}

000122ec <OSMemPut>:
   122ec:	e3500000 	cmp	r0, #0
   122f0:	0a00000e 	beq	12330 <OSMemPut+0x44>
   122f4:	e3510000 	cmp	r1, #0
   122f8:	0a00000a 	beq	12328 <OSMemPut+0x3c>
   122fc:	e92d4038 	push	{r3, r4, r5, lr}
   12300:	e1a04000 	mov	r4, r0
   12304:	e1a05001 	mov	r5, r1
   12308:	ebfff91a 	bl	10778 <OS_CPU_SR_Save>
   1230c:	e5943010 	ldr	r3, [r4, #16]
   12310:	e594200c 	ldr	r2, [r4, #12]
   12314:	e1530002 	cmp	r3, r2
   12318:	3a000006 	bcc	12338 <OSMemPut+0x4c>
   1231c:	ebfff91d 	bl	10798 <OS_CPU_SR_Restore>
   12320:	e3a00072 	mov	r0, #114	; 0x72
   12324:	e8bd8038 	pop	{r3, r4, r5, pc}
   12328:	e3a00073 	mov	r0, #115	; 0x73
   1232c:	e12fff1e 	bx	lr
   12330:	e3a00074 	mov	r0, #116	; 0x74
   12334:	e12fff1e 	bx	lr
   12338:	e5942004 	ldr	r2, [r4, #4]
   1233c:	e2833001 	add	r3, r3, #1
   12340:	e5852000 	str	r2, [r5]
   12344:	e5843010 	str	r3, [r4, #16]
   12348:	e5845004 	str	r5, [r4, #4]
   1234c:	ebfff911 	bl	10798 <OS_CPU_SR_Restore>
   12350:	e3a00000 	mov	r0, #0
   12354:	e8bd8038 	pop	{r3, r4, r5, pc}

00012358 <OSMemQuery>:
   12358:	e3500000 	cmp	r0, #0
   1235c:	0a000017 	beq	123c0 <OSMemQuery+0x68>
   12360:	e3510000 	cmp	r1, #0
   12364:	0a000013 	beq	123b8 <OSMemQuery+0x60>
   12368:	e92d4038 	push	{r3, r4, r5, lr}
   1236c:	e1a05000 	mov	r5, r0
   12370:	e1a04001 	mov	r4, r1
   12374:	ebfff8ff 	bl	10778 <OS_CPU_SR_Save>
   12378:	e2851008 	add	r1, r5, #8
   1237c:	e595e000 	ldr	lr, [r5]
   12380:	e891000e 	ldm	r1, {r1, r2, r3}
   12384:	e595c004 	ldr	ip, [r5, #4]
   12388:	e584c004 	str	ip, [r4, #4]
   1238c:	e584200c 	str	r2, [r4, #12]
   12390:	e5843010 	str	r3, [r4, #16]
   12394:	e584e000 	str	lr, [r4]
   12398:	e5841008 	str	r1, [r4, #8]
   1239c:	ebfff8fd 	bl	10798 <OS_CPU_SR_Restore>
   123a0:	e594300c 	ldr	r3, [r4, #12]
   123a4:	e5942010 	ldr	r2, [r4, #16]
   123a8:	e3a00000 	mov	r0, #0
   123ac:	e0623003 	rsb	r3, r2, r3
   123b0:	e5843014 	str	r3, [r4, #20]
   123b4:	e8bd8038 	pop	{r3, r4, r5, pc}
   123b8:	e3a00075 	mov	r0, #117	; 0x75
   123bc:	e12fff1e 	bx	lr
   123c0:	e3a00074 	mov	r0, #116	; 0x74
   123c4:	e12fff1e 	bx	lr

000123c8 <OS_MemInit>:
   123c8:	e59f3054 	ldr	r3, [pc, #84]	; 12424 <OS_MemInit+0x5c>
   123cc:	e3a02000 	mov	r2, #0
   123d0:	e2830050 	add	r0, r3, #80	; 0x50
   123d4:	e5032014 	str	r2, [r3, #-20]	; 0xffffffec
   123d8:	e3a01000 	mov	r1, #0
   123dc:	e5032004 	str	r2, [r3, #-4]
   123e0:	e5032008 	str	r2, [r3, #-8]
   123e4:	e503200c 	str	r2, [r3, #-12]
   123e8:	e5033010 	str	r3, [r3, #-16]
   123ec:	e2833014 	add	r3, r3, #20
   123f0:	e1530000 	cmp	r3, r0
   123f4:	1afffff6 	bne	123d4 <OS_MemInit+0xc>
   123f8:	e3053c2c 	movw	r3, #23596	; 0x5c2c
   123fc:	e30624a0 	movw	r2, #25760	; 0x64a0
   12400:	e3403001 	movt	r3, #1
   12404:	e3402001 	movt	r2, #1
   12408:	e5831054 	str	r1, [r3, #84]	; 0x54
   1240c:	e5831050 	str	r1, [r3, #80]	; 0x50
   12410:	e5831060 	str	r1, [r3, #96]	; 0x60
   12414:	e583105c 	str	r1, [r3, #92]	; 0x5c
   12418:	e5831058 	str	r1, [r3, #88]	; 0x58
   1241c:	e5823000 	str	r3, [r2]
   12420:	e12fff1e 	bx	lr
   12424:	00015c40 	andeq	r5, r1, r0, asr #24

00012428 <OSInit>:
   12428:	e92d4ff0 	push	{r4, r5, r6, r7, r8, r9, sl, fp, lr}
   1242c:	e306b53c 	movw	fp, #25916	; 0x653c
   12430:	e306a535 	movw	sl, #25909	; 0x6535
   12434:	e24dd024 	sub	sp, sp, #36	; 0x24
   12438:	e340b001 	movt	fp, #1
   1243c:	ebfff94a 	bl	1096c <OSInitHookBegin>
   12440:	e3052be4 	movw	r2, #23524	; 0x5be4
   12444:	e3402001 	movt	r2, #1
   12448:	e306351c 	movw	r3, #25884	; 0x651c
   1244c:	e340a001 	movt	sl, #1
   12450:	e3403001 	movt	r3, #1
   12454:	e58d3018 	str	r3, [sp, #24]
   12458:	e3063538 	movw	r3, #25912	; 0x6538
   1245c:	e3403001 	movt	r3, #1
   12460:	e3066490 	movw	r6, #25744	; 0x6490
   12464:	e58d301c 	str	r3, [sp, #28]
   12468:	e3a03000 	mov	r3, #0
   1246c:	e5c23000 	strb	r3, [r2]
   12470:	e3406001 	movt	r6, #1
   12474:	e59d2018 	ldr	r2, [sp, #24]
   12478:	e3059bdc 	movw	r9, #23516	; 0x5bdc
   1247c:	e58b3000 	str	r3, [fp]
   12480:	e306849d 	movw	r8, #25757	; 0x649d
   12484:	e5ca3000 	strb	r3, [sl]
   12488:	e3057bdd 	movw	r7, #23517	; 0x5bdd
   1248c:	e3055be0 	movw	r5, #23520	; 0x5be0
   12490:	e30742ac 	movw	r4, #29356	; 0x72ac
   12494:	e306e494 	movw	lr, #25748	; 0x6494
   12498:	e307c1a8 	movw	ip, #29096	; 0x71a8
   1249c:	e3060524 	movw	r0, #25892	; 0x6524
   124a0:	e3051c24 	movw	r1, #23588	; 0x5c24
   124a4:	e305bc28 	movw	fp, #23592	; 0x5c28
   124a8:	e306a528 	movw	sl, #25896	; 0x6528
   124ac:	e340a001 	movt	sl, #1
   124b0:	e3407001 	movt	r7, #1
   124b4:	e3404001 	movt	r4, #1
   124b8:	e5823000 	str	r3, [r2]
   124bc:	e3409001 	movt	r9, #1
   124c0:	e3408001 	movt	r8, #1
   124c4:	e3405001 	movt	r5, #1
   124c8:	e340e001 	movt	lr, #1
   124cc:	e340c001 	movt	ip, #1
   124d0:	e3400001 	movt	r0, #1
   124d4:	e3401001 	movt	r1, #1
   124d8:	e340b001 	movt	fp, #1
   124dc:	e59d201c 	ldr	r2, [sp, #28]
   124e0:	e5863000 	str	r3, [r6]
   124e4:	e59f61d0 	ldr	r6, [pc, #464]	; 126bc <OSInit+0x294>
   124e8:	e5c73000 	strb	r3, [r7]
   124ec:	e1a07003 	mov	r7, r3
   124f0:	e5843000 	str	r3, [r4]
   124f4:	e2864c01 	add	r4, r6, #256	; 0x100
   124f8:	e5c93000 	strb	r3, [r9]
   124fc:	e5c83000 	strb	r3, [r8]
   12500:	e5853000 	str	r3, [r5]
   12504:	e58e3000 	str	r3, [lr]
   12508:	e5cc3000 	strb	r3, [ip]
   1250c:	e5c03000 	strb	r3, [r0]
   12510:	e5c13000 	strb	r3, [r1]
   12514:	e5823000 	str	r3, [r2]
   12518:	e58b3000 	str	r3, [fp]
   1251c:	e5ca3000 	strb	r3, [sl]
   12520:	e5ca3001 	strb	r3, [sl, #1]
   12524:	e5ca3002 	strb	r3, [sl, #2]
   12528:	e5ca3003 	strb	r3, [sl, #3]
   1252c:	e5ca3004 	strb	r3, [sl, #4]
   12530:	e5ca3005 	strb	r3, [sl, #5]
   12534:	e5ca3006 	strb	r3, [sl, #6]
   12538:	e5ca3007 	strb	r3, [sl, #7]
   1253c:	e5a67004 	str	r7, [r6, #4]!
   12540:	e1560004 	cmp	r6, r4
   12544:	1afffffc 	bne	1253c <OSInit+0x114>
   12548:	e59f3170 	ldr	r3, [pc, #368]	; 126c0 <OSInit+0x298>
   1254c:	e2832d0d 	add	r2, r3, #832	; 0x340
   12550:	e5033020 	str	r3, [r3, #-32]	; 0xffffffe0
   12554:	e2833034 	add	r3, r3, #52	; 0x34
   12558:	e1530002 	cmp	r3, r2
   1255c:	1afffffb 	bne	12550 <OSInit+0x128>
   12560:	e3060498 	movw	r0, #25752	; 0x6498
   12564:	e2432fdd 	sub	r2, r3, #884	; 0x374
   12568:	e3400001 	movt	r0, #1
   1256c:	e59f3150 	ldr	r3, [pc, #336]	; 126c4 <OSInit+0x29c>
   12570:	e3a0c000 	mov	ip, #0
   12574:	e1a0100c 	mov	r1, ip
   12578:	e582c354 	str	ip, [r2, #852]	; 0x354
   1257c:	e5802000 	str	r2, [r0]
   12580:	e28320e0 	add	r2, r3, #224	; 0xe0
   12584:	e5431010 	strb	r1, [r3, #-16]
   12588:	e3a04000 	mov	r4, #0
   1258c:	e503300c 	str	r3, [r3, #-12]
   12590:	e2833010 	add	r3, r3, #16
   12594:	e1530002 	cmp	r3, r2
   12598:	1afffff9 	bne	12584 <OSInit+0x15c>
   1259c:	e3052be8 	movw	r2, #23528	; 0x5be8
   125a0:	e306c530 	movw	ip, #25904	; 0x6530
   125a4:	e3402001 	movt	r2, #1
   125a8:	e30701a4 	movw	r0, #29092	; 0x71a4
   125ac:	e1a01002 	mov	r1, r2
   125b0:	e340c001 	movt	ip, #1
   125b4:	e3400001 	movt	r0, #1
   125b8:	e5434010 	strb	r4, [r3, #-16]
   125bc:	e503400c 	str	r4, [r3, #-12]
   125c0:	e2828018 	add	r8, r2, #24
   125c4:	e4c1400c 	strb	r4, [r1], #12
   125c8:	e2825024 	add	r5, r2, #36	; 0x24
   125cc:	e282e030 	add	lr, r2, #48	; 0x30
   125d0:	e5c2400c 	strb	r4, [r2, #12]
   125d4:	e5c24018 	strb	r4, [r2, #24]
   125d8:	e24330f0 	sub	r3, r3, #240	; 0xf0
   125dc:	e5c24024 	strb	r4, [r2, #36]	; 0x24
   125e0:	e3a06c02 	mov	r6, #512	; 0x200
   125e4:	e5824034 	str	r4, [r2, #52]	; 0x34
   125e8:	e3a07003 	mov	r7, #3
   125ec:	e5828010 	str	r8, [r2, #16]
   125f0:	e582501c 	str	r5, [r2, #28]
   125f4:	e3065520 	movw	r5, #25888	; 0x6520
   125f8:	e582e028 	str	lr, [r2, #40]	; 0x28
   125fc:	e3405001 	movt	r5, #1
   12600:	e5821004 	str	r1, [r2, #4]
   12604:	e58c3000 	str	r3, [ip]
   12608:	e5802000 	str	r2, [r0]
   1260c:	ebffff6d 	bl	123c8 <OS_MemInit>
   12610:	e306c4a4 	movw	ip, #25764	; 0x64a4
   12614:	e58d400c 	str	r4, [sp, #12]
   12618:	e340c001 	movt	ip, #1
   1261c:	e3063540 	movw	r3, #25920	; 0x6540
   12620:	e1a0e00c 	mov	lr, ip
   12624:	e28c2018 	add	r2, ip, #24
   12628:	e3000ab8 	movw	r0, #2744	; 0xab8
   1262c:	e28c9048 	add	r9, ip, #72	; 0x48
   12630:	e28c8060 	add	r8, ip, #96	; 0x60
   12634:	e1a01004 	mov	r1, r4
   12638:	e48e2030 	str	r2, [lr], #48	; 0x30
   1263c:	e3403001 	movt	r3, #1
   12640:	e58d6008 	str	r6, [sp, #8]
   12644:	e3400001 	movt	r0, #1
   12648:	e58d3004 	str	r3, [sp, #4]
   1264c:	e30f3fff 	movw	r3, #65535	; 0xffff
   12650:	e58d7010 	str	r7, [sp, #16]
   12654:	e58d3000 	str	r3, [sp]
   12658:	e3a0303f 	mov	r3, #63	; 0x3f
   1265c:	e58ce018 	str	lr, [ip, #24]
   12660:	e58c4060 	str	r4, [ip, #96]	; 0x60
   12664:	e58c9030 	str	r9, [ip, #48]	; 0x30
   12668:	e58c8048 	str	r8, [ip, #72]	; 0x48
   1266c:	e585c000 	str	ip, [r5]
   12670:	e59f2050 	ldr	r2, [pc, #80]	; 126c8 <OSInit+0x2a0>
   12674:	ebfffb31 	bl	11340 <OSTaskCreateExt.part.0>
   12678:	e3053c90 	movw	r3, #23696	; 0x5c90
   1267c:	e3010144 	movw	r0, #4420	; 0x1144
   12680:	e30fcffe 	movw	ip, #65534	; 0xfffe
   12684:	e58d6008 	str	r6, [sp, #8]
   12688:	e1a01004 	mov	r1, r4
   1268c:	e58d7010 	str	r7, [sp, #16]
   12690:	e3403001 	movt	r3, #1
   12694:	e58d400c 	str	r4, [sp, #12]
   12698:	e3400001 	movt	r0, #1
   1269c:	e58d3004 	str	r3, [sp, #4]
   126a0:	e3a0303e 	mov	r3, #62	; 0x3e
   126a4:	e59f2020 	ldr	r2, [pc, #32]	; 126cc <OSInit+0x2a4>
   126a8:	e58dc000 	str	ip, [sp]
   126ac:	ebfffb23 	bl	11340 <OSTaskCreateExt.part.0>
   126b0:	e28dd024 	add	sp, sp, #36	; 0x24
   126b4:	e8bd4ff0 	pop	{r4, r5, r6, r7, r8, r9, sl, fp, lr}
   126b8:	eafff8ac 	b	10970 <OSInitHookEnd>
   126bc:	000171a8 	andeq	r7, r1, r8, lsr #3
   126c0:	00016e64 	andeq	r6, r1, r4, ror #28
   126c4:	00016d50 	andeq	r6, r1, r0, asr sp
   126c8:	00016d3c 	andeq	r6, r1, ip, lsr sp
   126cc:	0001648c 	andeq	r6, r1, ip, lsl #9

000126d0 <OSMutexAccept>:
   126d0:	e3063535 	movw	r3, #25909	; 0x6535
   126d4:	e92d4070 	push	{r4, r5, r6, lr}
   126d8:	e3403001 	movt	r3, #1
   126dc:	e5d34000 	ldrb	r4, [r3]
   126e0:	e3540000 	cmp	r4, #0
   126e4:	1a00000a 	bne	12714 <OSMutexAccept+0x44>
   126e8:	e3500000 	cmp	r0, #0
   126ec:	03a03004 	moveq	r3, #4
   126f0:	05c13000 	strbeq	r3, [r1]
   126f4:	0a000004 	beq	1270c <OSMutexAccept+0x3c>
   126f8:	e5d03000 	ldrb	r3, [r0]
   126fc:	e3530004 	cmp	r3, #4
   12700:	0a000008 	beq	12728 <OSMutexAccept+0x58>
   12704:	e3a03001 	mov	r3, #1
   12708:	e5c13000 	strb	r3, [r1]
   1270c:	e1a00004 	mov	r0, r4
   12710:	e8bd8070 	pop	{r4, r5, r6, pc}
   12714:	e3a04000 	mov	r4, #0
   12718:	e3a03002 	mov	r3, #2
   1271c:	e1a00004 	mov	r0, r4
   12720:	e5c13000 	strb	r3, [r1]
   12724:	e8bd8070 	pop	{r4, r5, r6, pc}
   12728:	e1a05000 	mov	r5, r0
   1272c:	e1a06001 	mov	r6, r1
   12730:	ebfff810 	bl	10778 <OS_CPU_SR_Save>
   12734:	e1d530b2 	ldrh	r3, [r5, #2]
   12738:	e6ef2073 	uxtb	r2, r3
   1273c:	e35200ff 	cmp	r2, #255	; 0xff
   12740:	0a000002 	beq	12750 <OSMutexAccept+0x80>
   12744:	ebfff813 	bl	10798 <OS_CPU_SR_Restore>
   12748:	e5c64000 	strb	r4, [r6]
   1274c:	eaffffee 	b	1270c <OSMutexAccept+0x3c>
   12750:	e3062538 	movw	r2, #25912	; 0x6538
   12754:	e2033cff 	and	r3, r3, #65280	; 0xff00
   12758:	e3402001 	movt	r2, #1
   1275c:	e1c530b2 	strh	r3, [r5, #2]
   12760:	e5921000 	ldr	r1, [r2]
   12764:	e5d1202d 	ldrb	r2, [r1, #45]	; 0x2d
   12768:	e5851004 	str	r1, [r5, #4]
   1276c:	e1833002 	orr	r3, r3, r2
   12770:	e1c530b2 	strh	r3, [r5, #2]
   12774:	ebfff807 	bl	10798 <OS_CPU_SR_Restore>
   12778:	e5c64000 	strb	r4, [r6]
   1277c:	e3a04001 	mov	r4, #1
   12780:	eaffffe1 	b	1270c <OSMutexAccept+0x3c>

00012784 <OSMutexCreate>:
   12784:	e92d40f8 	push	{r3, r4, r5, r6, r7, lr}
   12788:	e3063535 	movw	r3, #25909	; 0x6535
   1278c:	e3403001 	movt	r3, #1
   12790:	e5d34000 	ldrb	r4, [r3]
   12794:	e3540000 	cmp	r4, #0
   12798:	1a00002e 	bne	12858 <OSMutexCreate+0xd4>
   1279c:	e350003e 	cmp	r0, #62	; 0x3e
   127a0:	8a000023 	bhi	12834 <OSMutexCreate+0xb0>
   127a4:	e1a05000 	mov	r5, r0
   127a8:	e1a07001 	mov	r7, r1
   127ac:	ebfff7f1 	bl	10778 <OS_CPU_SR_Save>
   127b0:	e30731ac 	movw	r3, #29100	; 0x71ac
   127b4:	e3403001 	movt	r3, #1
   127b8:	e7936105 	ldr	r6, [r3, r5, lsl #2]
   127bc:	e3560000 	cmp	r6, #0
   127c0:	1a00001f 	bne	12844 <OSMutexCreate+0xc0>
   127c4:	e3062530 	movw	r2, #25904	; 0x6530
   127c8:	e3a01001 	mov	r1, #1
   127cc:	e3402001 	movt	r2, #1
   127d0:	e7831105 	str	r1, [r3, r5, lsl #2]
   127d4:	e5924000 	ldr	r4, [r2]
   127d8:	e3540000 	cmp	r4, #0
   127dc:	0a000021 	beq	12868 <OSMutexCreate+0xe4>
   127e0:	e5943004 	ldr	r3, [r4, #4]
   127e4:	e5823000 	str	r3, [r2]
   127e8:	ebfff7ea 	bl	10798 <OS_CPU_SR_Restore>
   127ec:	e1a00405 	lsl	r0, r5, #8
   127f0:	e5846004 	str	r6, [r4, #4]
   127f4:	e38000ff 	orr	r0, r0, #255	; 0xff
   127f8:	e5c46001 	strb	r6, [r4, #1]
   127fc:	e1c400b2 	strh	r0, [r4, #2]
   12800:	e3a03004 	mov	r3, #4
   12804:	e5c46008 	strb	r6, [r4, #8]
   12808:	e1a00004 	mov	r0, r4
   1280c:	e5c46009 	strb	r6, [r4, #9]
   12810:	e5c4600a 	strb	r6, [r4, #10]
   12814:	e5c4600b 	strb	r6, [r4, #11]
   12818:	e5c4600c 	strb	r6, [r4, #12]
   1281c:	e5c4600d 	strb	r6, [r4, #13]
   12820:	e5c4600e 	strb	r6, [r4, #14]
   12824:	e5c4600f 	strb	r6, [r4, #15]
   12828:	e5c43000 	strb	r3, [r4]
   1282c:	e5c76000 	strb	r6, [r7]
   12830:	e8bd80f8 	pop	{r3, r4, r5, r6, r7, pc}
   12834:	e3a0302a 	mov	r3, #42	; 0x2a
   12838:	e1a00004 	mov	r0, r4
   1283c:	e5c13000 	strb	r3, [r1]
   12840:	e8bd80f8 	pop	{r3, r4, r5, r6, r7, pc}
   12844:	ebfff7d3 	bl	10798 <OS_CPU_SR_Restore>
   12848:	e3a03028 	mov	r3, #40	; 0x28
   1284c:	e1a00004 	mov	r0, r4
   12850:	e5c73000 	strb	r3, [r7]
   12854:	e8bd80f8 	pop	{r3, r4, r5, r6, r7, pc}
   12858:	e3e03072 	mvn	r3, #114	; 0x72
   1285c:	e3a00000 	mov	r0, #0
   12860:	e5c13000 	strb	r3, [r1]
   12864:	e8bd80f8 	pop	{r3, r4, r5, r6, r7, pc}
   12868:	e7834105 	str	r4, [r3, r5, lsl #2]
   1286c:	ebfff7c9 	bl	10798 <OS_CPU_SR_Restore>
   12870:	e3a03004 	mov	r3, #4
   12874:	e1a00004 	mov	r0, r4
   12878:	e5c73000 	strb	r3, [r7]
   1287c:	e8bd80f8 	pop	{r3, r4, r5, r6, r7, pc}

00012880 <OSMutexDel>:
   12880:	e3063535 	movw	r3, #25909	; 0x6535
   12884:	e92d40f0 	push	{r4, r5, r6, r7, lr}
   12888:	e3403001 	movt	r3, #1
   1288c:	e1a04000 	mov	r4, r0
   12890:	e24dd00c 	sub	sp, sp, #12
   12894:	e1a05002 	mov	r5, r2
   12898:	e5d33000 	ldrb	r3, [r3]
   1289c:	e3530000 	cmp	r3, #0
   128a0:	1a00000b 	bne	128d4 <OSMutexDel+0x54>
   128a4:	e3500000 	cmp	r0, #0
   128a8:	03a03004 	moveq	r3, #4
   128ac:	05c23000 	strbeq	r3, [r2]
   128b0:	0a000005 	beq	128cc <OSMutexDel+0x4c>
   128b4:	e5d43000 	ldrb	r3, [r4]
   128b8:	e3530004 	cmp	r3, #4
   128bc:	0a000008 	beq	128e4 <OSMutexDel+0x64>
   128c0:	e3a03001 	mov	r3, #1
   128c4:	e1a00004 	mov	r0, r4
   128c8:	e5c23000 	strb	r3, [r2]
   128cc:	e28dd00c 	add	sp, sp, #12
   128d0:	e8bd80f0 	pop	{r4, r5, r6, r7, pc}
   128d4:	e3e03073 	mvn	r3, #115	; 0x73
   128d8:	e5c23000 	strb	r3, [r2]
   128dc:	e28dd00c 	add	sp, sp, #12
   128e0:	e8bd80f0 	pop	{r4, r5, r6, r7, pc}
   128e4:	e58d1004 	str	r1, [sp, #4]
   128e8:	ebfff7a2 	bl	10778 <OS_CPU_SR_Save>
   128ec:	e5d46001 	ldrb	r6, [r4, #1]
   128f0:	e1a07000 	mov	r7, r0
   128f4:	e59d1004 	ldr	r1, [sp, #4]
   128f8:	e3560000 	cmp	r6, #0
   128fc:	0a00000c 	beq	12934 <OSMutexDel+0xb4>
   12900:	e3510000 	cmp	r1, #0
   12904:	0a000022 	beq	12994 <OSMutexDel+0x114>
   12908:	e3510001 	cmp	r1, #1
   1290c:	1a000036 	bne	129ec <OSMutexDel+0x16c>
   12910:	e1a06001 	mov	r6, r1
   12914:	e1a00004 	mov	r0, r4
   12918:	e3a01000 	mov	r1, #0
   1291c:	e3a02010 	mov	r2, #16
   12920:	ebfff922 	bl	10db0 <OS_EventTaskRdy>
   12924:	e5d43001 	ldrb	r3, [r4, #1]
   12928:	e3530000 	cmp	r3, #0
   1292c:	1afffff8 	bne	12914 <OSMutexDel+0x94>
   12930:	ea000003 	b	12944 <OSMutexDel+0xc4>
   12934:	e3510000 	cmp	r1, #0
   12938:	0a00001a 	beq	129a8 <OSMutexDel+0x128>
   1293c:	e3510001 	cmp	r1, #1
   12940:	1a000029 	bne	129ec <OSMutexDel+0x16c>
   12944:	e1d410b2 	ldrh	r1, [r4, #2]
   12948:	e30721ac 	movw	r2, #29100	; 0x71ac
   1294c:	e3402001 	movt	r2, #1
   12950:	e3063530 	movw	r3, #25904	; 0x6530
   12954:	e3403001 	movt	r3, #1
   12958:	e3a0c000 	mov	ip, #0
   1295c:	e1a01421 	lsr	r1, r1, #8
   12960:	e1a00007 	mov	r0, r7
   12964:	e782c101 	str	ip, [r2, r1, lsl #2]
   12968:	e5c4c000 	strb	ip, [r4]
   1296c:	e5932000 	ldr	r2, [r3]
   12970:	e5842004 	str	r2, [r4, #4]
   12974:	e5834000 	str	r4, [r3]
   12978:	ebfff786 	bl	10798 <OS_CPU_SR_Restore>
   1297c:	e3560001 	cmp	r6, #1
   12980:	0a00001f 	beq	12a04 <OSMutexDel+0x184>
   12984:	e3a04000 	mov	r4, #0
   12988:	e5c54000 	strb	r4, [r5]
   1298c:	e1a00004 	mov	r0, r4
   12990:	eaffffcd 	b	128cc <OSMutexDel+0x4c>
   12994:	ebfff77f 	bl	10798 <OS_CPU_SR_Restore>
   12998:	e3a03008 	mov	r3, #8
   1299c:	e1a00004 	mov	r0, r4
   129a0:	e5c53000 	strb	r3, [r5]
   129a4:	eaffffc8 	b	128cc <OSMutexDel+0x4c>
   129a8:	e1d4c0b2 	ldrh	ip, [r4, #2]
   129ac:	e30721ac 	movw	r2, #29100	; 0x71ac
   129b0:	e3402001 	movt	r2, #1
   129b4:	e3063530 	movw	r3, #25904	; 0x6530
   129b8:	e3403001 	movt	r3, #1
   129bc:	e58d1004 	str	r1, [sp, #4]
   129c0:	e1a0c42c 	lsr	ip, ip, #8
   129c4:	e782110c 	str	r1, [r2, ip, lsl #2]
   129c8:	e5c41000 	strb	r1, [r4]
   129cc:	e5932000 	ldr	r2, [r3]
   129d0:	e5842004 	str	r2, [r4, #4]
   129d4:	e5834000 	str	r4, [r3]
   129d8:	ebfff76e 	bl	10798 <OS_CPU_SR_Restore>
   129dc:	e59d1004 	ldr	r1, [sp, #4]
   129e0:	e5c51000 	strb	r1, [r5]
   129e4:	e1a00001 	mov	r0, r1
   129e8:	eaffffb7 	b	128cc <OSMutexDel+0x4c>
   129ec:	e1a00007 	mov	r0, r7
   129f0:	ebfff768 	bl	10798 <OS_CPU_SR_Restore>
   129f4:	e3a03007 	mov	r3, #7
   129f8:	e1a00004 	mov	r0, r4
   129fc:	e5c53000 	strb	r3, [r5]
   12a00:	eaffffb1 	b	128cc <OSMutexDel+0x4c>
   12a04:	ebfff94e 	bl	10f44 <OS_Sched>
   12a08:	eaffffdd 	b	12984 <OSMutexDel+0x104>

00012a0c <OSMutexPend>:
   12a0c:	e3063535 	movw	r3, #25909	; 0x6535
   12a10:	e92d4ff0 	push	{r4, r5, r6, r7, r8, r9, sl, fp, lr}
   12a14:	e3403001 	movt	r3, #1
   12a18:	e1a05002 	mov	r5, r2
   12a1c:	e24dd00c 	sub	sp, sp, #12
   12a20:	e5d37000 	ldrb	r7, [r3]
   12a24:	e3570000 	cmp	r7, #0
   12a28:	13a03002 	movne	r3, #2
   12a2c:	15c23000 	strbne	r3, [r2]
   12a30:	1a00000c 	bne	12a68 <OSMutexPend+0x5c>
   12a34:	e3500000 	cmp	r0, #0
   12a38:	e1a04000 	mov	r4, r0
   12a3c:	03a03004 	moveq	r3, #4
   12a40:	05c23000 	strbeq	r3, [r2]
   12a44:	0a000007 	beq	12a68 <OSMutexPend+0x5c>
   12a48:	e1a06001 	mov	r6, r1
   12a4c:	ebfff749 	bl	10778 <OS_CPU_SR_Save>
   12a50:	e5d43000 	ldrb	r3, [r4]
   12a54:	e1a08000 	mov	r8, r0
   12a58:	e3530004 	cmp	r3, #4
   12a5c:	13a03001 	movne	r3, #1
   12a60:	15c53000 	strbne	r3, [r5]
   12a64:	0a000001 	beq	12a70 <OSMutexPend+0x64>
   12a68:	e28dd00c 	add	sp, sp, #12
   12a6c:	e8bd8ff0 	pop	{r4, r5, r6, r7, r8, r9, sl, fp, pc}
   12a70:	e1d430b2 	ldrh	r3, [r4, #2]
   12a74:	e6efc073 	uxtb	ip, r3
   12a78:	e35c00ff 	cmp	ip, #255	; 0xff
   12a7c:	0a00005d 	beq	12bf8 <OSMutexPend+0x1ec>
   12a80:	e5942004 	ldr	r2, [r4, #4]
   12a84:	e3067538 	movw	r7, #25912	; 0x6538
   12a88:	e1a03423 	lsr	r3, r3, #8
   12a8c:	e3407001 	movt	r7, #1
   12a90:	e5d2102d 	ldrb	r1, [r2, #45]	; 0x2d
   12a94:	e1510003 	cmp	r1, r3
   12a98:	e5971000 	ldr	r1, [r7]
   12a9c:	0a000039 	beq	12b88 <OSMutexPend+0x17c>
   12aa0:	e5d1002d 	ldrb	r0, [r1, #45]	; 0x2d
   12aa4:	e150000c 	cmp	r0, ip
   12aa8:	2a000036 	bcs	12b88 <OSMutexPend+0x17c>
   12aac:	e3060528 	movw	r0, #25896	; 0x6528
   12ab0:	e5d2e02f 	ldrb	lr, [r2, #47]	; 0x2f
   12ab4:	e3400001 	movt	r0, #1
   12ab8:	e5d29030 	ldrb	r9, [r2, #48]	; 0x30
   12abc:	e7d0c00e 	ldrb	ip, [r0, lr]
   12ac0:	e11c0009 	tst	ip, r9
   12ac4:	0a00001f 	beq	12b48 <OSMutexPend+0x13c>
   12ac8:	e1ccc009 	bic	ip, ip, r9
   12acc:	e7c0c00e 	strb	ip, [r0, lr]
   12ad0:	e35c0000 	cmp	ip, #0
   12ad4:	e306e524 	movw	lr, #25892	; 0x6524
   12ad8:	1a000052 	bne	12c28 <OSMutexPend+0x21c>
   12adc:	e340e001 	movt	lr, #1
   12ae0:	e5d2b031 	ldrb	fp, [r2, #49]	; 0x31
   12ae4:	e5dec000 	ldrb	ip, [lr]
   12ae8:	e1ccc00b 	bic	ip, ip, fp
   12aec:	e58dc004 	str	ip, [sp, #4]
   12af0:	e304a7fc 	movw	sl, #18428	; 0x47fc
   12af4:	e1a0c1a3 	lsr	ip, r3, #3
   12af8:	e340a001 	movt	sl, #1
   12afc:	e2039007 	and	r9, r3, #7
   12b00:	e08ab00c 	add	fp, sl, ip
   12b04:	e08aa009 	add	sl, sl, r9
   12b08:	e58d9000 	str	r9, [sp]
   12b0c:	e5c2302d 	strb	r3, [r2, #45]	; 0x2d
   12b10:	e5db9100 	ldrb	r9, [fp, #256]	; 0x100
   12b14:	e59db004 	ldr	fp, [sp, #4]
   12b18:	e5daa100 	ldrb	sl, [sl, #256]	; 0x100
   12b1c:	e18bb009 	orr	fp, fp, r9
   12b20:	e5c29031 	strb	r9, [r2, #49]	; 0x31
   12b24:	e7d0900c 	ldrb	r9, [r0, ip]
   12b28:	e5ceb000 	strb	fp, [lr]
   12b2c:	e5dde000 	ldrb	lr, [sp]
   12b30:	e18a9009 	orr	r9, sl, r9
   12b34:	e5c2c02f 	strb	ip, [r2, #47]	; 0x2f
   12b38:	e5c2a030 	strb	sl, [r2, #48]	; 0x30
   12b3c:	e5c2e02e 	strb	lr, [r2, #46]	; 0x2e
   12b40:	e7c0900c 	strb	r9, [r0, ip]
   12b44:	ea00000c 	b	12b7c <OSMutexPend+0x170>
   12b48:	e30407fc 	movw	r0, #18428	; 0x47fc
   12b4c:	e1a0e1a3 	lsr	lr, r3, #3
   12b50:	e3400001 	movt	r0, #1
   12b54:	e203c007 	and	ip, r3, #7
   12b58:	e080900e 	add	r9, r0, lr
   12b5c:	e080000c 	add	r0, r0, ip
   12b60:	e5c2e02f 	strb	lr, [r2, #47]	; 0x2f
   12b64:	e5c2302d 	strb	r3, [r2, #45]	; 0x2d
   12b68:	e5d9e100 	ldrb	lr, [r9, #256]	; 0x100
   12b6c:	e5d00100 	ldrb	r0, [r0, #256]	; 0x100
   12b70:	e5c2e031 	strb	lr, [r2, #49]	; 0x31
   12b74:	e5c20030 	strb	r0, [r2, #48]	; 0x30
   12b78:	e5c2c02e 	strb	ip, [r2, #46]	; 0x2e
   12b7c:	e30701ac 	movw	r0, #29100	; 0x71ac
   12b80:	e3400001 	movt	r0, #1
   12b84:	e7802103 	str	r2, [r0, r3, lsl #2]
   12b88:	e5d1302c 	ldrb	r3, [r1, #44]	; 0x2c
   12b8c:	e1a00004 	mov	r0, r4
   12b90:	e1c162ba 	strh	r6, [r1, #42]	; 0x2a
   12b94:	e3833010 	orr	r3, r3, #16
   12b98:	e5c1302c 	strb	r3, [r1, #44]	; 0x2c
   12b9c:	ebfff8ae 	bl	10e5c <OS_EventTaskWait>
   12ba0:	e1a00008 	mov	r0, r8
   12ba4:	ebfff6fb 	bl	10798 <OS_CPU_SR_Restore>
   12ba8:	ebfff8e5 	bl	10f44 <OS_Sched>
   12bac:	ebfff6f1 	bl	10778 <OS_CPU_SR_Save>
   12bb0:	e5972000 	ldr	r2, [r7]
   12bb4:	e1a08000 	mov	r8, r0
   12bb8:	e5d2302c 	ldrb	r3, [r2, #44]	; 0x2c
   12bbc:	e2033010 	and	r3, r3, #16
   12bc0:	e21360ff 	ands	r6, r3, #255	; 0xff
   12bc4:	1a000004 	bne	12bdc <OSMutexPend+0x1d0>
   12bc8:	e582601c 	str	r6, [r2, #28]
   12bcc:	ebfff6f1 	bl	10798 <OS_CPU_SR_Restore>
   12bd0:	e5c56000 	strb	r6, [r5]
   12bd4:	e28dd00c 	add	sp, sp, #12
   12bd8:	e8bd8ff0 	pop	{r4, r5, r6, r7, r8, r9, sl, fp, pc}
   12bdc:	e1a00004 	mov	r0, r4
   12be0:	ebfff8ba 	bl	10ed0 <OS_EventTO>
   12be4:	e1a00008 	mov	r0, r8
   12be8:	ebfff6ea 	bl	10798 <OS_CPU_SR_Restore>
   12bec:	e3a0300a 	mov	r3, #10
   12bf0:	e5c53000 	strb	r3, [r5]
   12bf4:	eaffff9b 	b	12a68 <OSMutexPend+0x5c>
   12bf8:	e3062538 	movw	r2, #25912	; 0x6538
   12bfc:	e2033cff 	and	r3, r3, #65280	; 0xff00
   12c00:	e3402001 	movt	r2, #1
   12c04:	e1c430b2 	strh	r3, [r4, #2]
   12c08:	e5921000 	ldr	r1, [r2]
   12c0c:	e5d1202d 	ldrb	r2, [r1, #45]	; 0x2d
   12c10:	e5841004 	str	r1, [r4, #4]
   12c14:	e1833002 	orr	r3, r3, r2
   12c18:	e1c430b2 	strh	r3, [r4, #2]
   12c1c:	ebfff6dd 	bl	10798 <OS_CPU_SR_Restore>
   12c20:	e5c57000 	strb	r7, [r5]
   12c24:	eaffff8f 	b	12a68 <OSMutexPend+0x5c>
   12c28:	e340e001 	movt	lr, #1
   12c2c:	e5dec000 	ldrb	ip, [lr]
   12c30:	e58dc004 	str	ip, [sp, #4]
   12c34:	eaffffad 	b	12af0 <OSMutexPend+0xe4>

00012c38 <OSMutexPost>:
   12c38:	e92d4ff8 	push	{r3, r4, r5, r6, r7, r8, r9, sl, fp, lr}
   12c3c:	e3063535 	movw	r3, #25909	; 0x6535
   12c40:	e3403001 	movt	r3, #1
   12c44:	e5d33000 	ldrb	r3, [r3]
   12c48:	e3530000 	cmp	r3, #0
   12c4c:	13a04005 	movne	r4, #5
   12c50:	0a000001 	beq	12c5c <OSMutexPost+0x24>
   12c54:	e1a00004 	mov	r0, r4
   12c58:	e8bd8ff8 	pop	{r3, r4, r5, r6, r7, r8, r9, sl, fp, pc}
   12c5c:	e3500000 	cmp	r0, #0
   12c60:	03a04004 	moveq	r4, #4
   12c64:	0afffffa 	beq	12c54 <OSMutexPost+0x1c>
   12c68:	e5d03000 	ldrb	r3, [r0]
   12c6c:	e3530004 	cmp	r3, #4
   12c70:	13a04001 	movne	r4, #1
   12c74:	1afffff6 	bne	12c54 <OSMutexPost+0x1c>
   12c78:	e1a05000 	mov	r5, r0
   12c7c:	ebfff6bd 	bl	10778 <OS_CPU_SR_Save>
   12c80:	e3063538 	movw	r3, #25912	; 0x6538
   12c84:	e1a07000 	mov	r7, r0
   12c88:	e3403001 	movt	r3, #1
   12c8c:	e1d520b2 	ldrh	r2, [r5, #2]
   12c90:	e5933000 	ldr	r3, [r3]
   12c94:	e1a0c422 	lsr	ip, r2, #8
   12c98:	e6ef2072 	uxtb	r2, r2
   12c9c:	e5d3102d 	ldrb	r1, [r3, #45]	; 0x2d
   12ca0:	e151000c 	cmp	r1, ip
   12ca4:	0a000006 	beq	12cc4 <OSMutexPost+0x8c>
   12ca8:	e1520001 	cmp	r2, r1
   12cac:	030711ac 	movweq	r1, #29100	; 0x71ac
   12cb0:	03401001 	movteq	r1, #1
   12cb4:	0a000026 	beq	12d54 <OSMutexPost+0x11c>
   12cb8:	ebfff6b6 	bl	10798 <OS_CPU_SR_Restore>
   12cbc:	e3a04078 	mov	r4, #120	; 0x78
   12cc0:	eaffffe3 	b	12c54 <OSMutexPost+0x1c>
   12cc4:	e3060528 	movw	r0, #25896	; 0x6528
   12cc8:	e5d3e02f 	ldrb	lr, [r3, #47]	; 0x2f
   12ccc:	e3400001 	movt	r0, #1
   12cd0:	e5d34030 	ldrb	r4, [r3, #48]	; 0x30
   12cd4:	e3066524 	movw	r6, #25892	; 0x6524
   12cd8:	e2029007 	and	r9, r2, #7
   12cdc:	e5c3202d 	strb	r2, [r3, #45]	; 0x2d
   12ce0:	e7d0100e 	ldrb	r1, [r0, lr]
   12ce4:	e5c3902e 	strb	r9, [r3, #46]	; 0x2e
   12ce8:	e1c11004 	bic	r1, r1, r4
   12cec:	e7c0100e 	strb	r1, [r0, lr]
   12cf0:	e3510000 	cmp	r1, #0
   12cf4:	e1a041a2 	lsr	r4, r2, #3
   12cf8:	03406001 	movteq	r6, #1
   12cfc:	13406001 	movtne	r6, #1
   12d00:	05d38031 	ldrbeq	r8, [r3, #49]	; 0x31
   12d04:	e7d0b004 	ldrb	fp, [r0, r4]
   12d08:	05d61000 	ldrbeq	r1, [r6]
   12d0c:	15d68000 	ldrbne	r8, [r6]
   12d10:	01c18008 	biceq	r8, r1, r8
   12d14:	e30417fc 	movw	r1, #18428	; 0x47fc
   12d18:	e3401001 	movt	r1, #1
   12d1c:	e5c3402f 	strb	r4, [r3, #47]	; 0x2f
   12d20:	e081a004 	add	sl, r1, r4
   12d24:	e081e009 	add	lr, r1, r9
   12d28:	e30711ac 	movw	r1, #29100	; 0x71ac
   12d2c:	e3401001 	movt	r1, #1
   12d30:	e5daa100 	ldrb	sl, [sl, #256]	; 0x100
   12d34:	e5dee100 	ldrb	lr, [lr, #256]	; 0x100
   12d38:	e188800a 	orr	r8, r8, sl
   12d3c:	e5c3a031 	strb	sl, [r3, #49]	; 0x31
   12d40:	e18eb00b 	orr	fp, lr, fp
   12d44:	e5c3e030 	strb	lr, [r3, #48]	; 0x30
   12d48:	e5c68000 	strb	r8, [r6]
   12d4c:	e7c0b004 	strb	fp, [r0, r4]
   12d50:	e7813102 	str	r3, [r1, r2, lsl #2]
   12d54:	e3a03001 	mov	r3, #1
   12d58:	e781310c 	str	r3, [r1, ip, lsl #2]
   12d5c:	e30761ac 	movw	r6, #29100	; 0x71ac
   12d60:	e5d54001 	ldrb	r4, [r5, #1]
   12d64:	e3406001 	movt	r6, #1
   12d68:	e3540000 	cmp	r4, #0
   12d6c:	1a000006 	bne	12d8c <OSMutexPost+0x154>
   12d70:	e1d530b2 	ldrh	r3, [r5, #2]
   12d74:	e1a00007 	mov	r0, r7
   12d78:	e5854004 	str	r4, [r5, #4]
   12d7c:	e38330ff 	orr	r3, r3, #255	; 0xff
   12d80:	e1c530b2 	strh	r3, [r5, #2]
   12d84:	ebfff683 	bl	10798 <OS_CPU_SR_Restore>
   12d88:	eaffffb1 	b	12c54 <OSMutexPost+0x1c>
   12d8c:	e3a01000 	mov	r1, #0
   12d90:	e1a00005 	mov	r0, r5
   12d94:	e3a02010 	mov	r2, #16
   12d98:	e1a04001 	mov	r4, r1
   12d9c:	ebfff803 	bl	10db0 <OS_EventTaskRdy>
   12da0:	e1a02000 	mov	r2, r0
   12da4:	e1d530b2 	ldrh	r3, [r5, #2]
   12da8:	e1a00007 	mov	r0, r7
   12dac:	e7961102 	ldr	r1, [r6, r2, lsl #2]
   12db0:	e3c330ff 	bic	r3, r3, #255	; 0xff
   12db4:	e1823003 	orr	r3, r2, r3
   12db8:	e5851004 	str	r1, [r5, #4]
   12dbc:	e1c530b2 	strh	r3, [r5, #2]
   12dc0:	ebfff674 	bl	10798 <OS_CPU_SR_Restore>
   12dc4:	ebfff85e 	bl	10f44 <OS_Sched>
   12dc8:	eaffffa1 	b	12c54 <OSMutexPost+0x1c>

00012dcc <OSMutexQuery>:
   12dcc:	e3063535 	movw	r3, #25909	; 0x6535
   12dd0:	e92d4070 	push	{r4, r5, r6, lr}
   12dd4:	e3403001 	movt	r3, #1
   12dd8:	e5d34000 	ldrb	r4, [r3]
   12ddc:	e3540000 	cmp	r4, #0
   12de0:	13a04006 	movne	r4, #6
   12de4:	0a000001 	beq	12df0 <OSMutexQuery+0x24>
   12de8:	e1a00004 	mov	r0, r4
   12dec:	e8bd8070 	pop	{r4, r5, r6, pc}
   12df0:	e3500000 	cmp	r0, #0
   12df4:	03a04004 	moveq	r4, #4
   12df8:	0afffffa 	beq	12de8 <OSMutexQuery+0x1c>
   12dfc:	e5d03000 	ldrb	r3, [r0]
   12e00:	e3530004 	cmp	r3, #4
   12e04:	13a04001 	movne	r4, #1
   12e08:	1afffff6 	bne	12de8 <OSMutexQuery+0x1c>
   12e0c:	e1a05000 	mov	r5, r0
   12e10:	e1a06001 	mov	r6, r1
   12e14:	ebfff657 	bl	10778 <OS_CPU_SR_Save>
   12e18:	e1d530b2 	ldrh	r3, [r5, #2]
   12e1c:	e1a03423 	lsr	r3, r3, #8
   12e20:	e5c6300b 	strb	r3, [r6, #11]
   12e24:	e5d53002 	ldrb	r3, [r5, #2]
   12e28:	e5c6300a 	strb	r3, [r6, #10]
   12e2c:	e35300ff 	cmp	r3, #255	; 0xff
   12e30:	15c64009 	strbne	r4, [r6, #9]
   12e34:	03a03001 	moveq	r3, #1
   12e38:	05c63009 	strbeq	r3, [r6, #9]
   12e3c:	e5d53001 	ldrb	r3, [r5, #1]
   12e40:	e5c63008 	strb	r3, [r6, #8]
   12e44:	e5d53008 	ldrb	r3, [r5, #8]
   12e48:	e5c63000 	strb	r3, [r6]
   12e4c:	e5d53009 	ldrb	r3, [r5, #9]
   12e50:	e5c63001 	strb	r3, [r6, #1]
   12e54:	e5d5300a 	ldrb	r3, [r5, #10]
   12e58:	e5c63002 	strb	r3, [r6, #2]
   12e5c:	e5d5300b 	ldrb	r3, [r5, #11]
   12e60:	e5c63003 	strb	r3, [r6, #3]
   12e64:	e5d5300c 	ldrb	r3, [r5, #12]
   12e68:	e5c63004 	strb	r3, [r6, #4]
   12e6c:	e5d5300d 	ldrb	r3, [r5, #13]
   12e70:	e5c63005 	strb	r3, [r6, #5]
   12e74:	e5d5300e 	ldrb	r3, [r5, #14]
   12e78:	e5c63006 	strb	r3, [r6, #6]
   12e7c:	e5d5300f 	ldrb	r3, [r5, #15]
   12e80:	e5c63007 	strb	r3, [r6, #7]
   12e84:	ebfff643 	bl	10798 <OS_CPU_SR_Restore>
   12e88:	eaffffd6 	b	12de8 <OSMutexQuery+0x1c>

00012e8c <OSQAccept>:
   12e8c:	e3500000 	cmp	r0, #0
   12e90:	012fff1e 	bxeq	lr
   12e94:	e5d03000 	ldrb	r3, [r0]
   12e98:	e3530002 	cmp	r3, #2
   12e9c:	1a000014 	bne	12ef4 <OSQAccept+0x68>
   12ea0:	e92d4010 	push	{r4, lr}
   12ea4:	e1a04000 	mov	r4, r0
   12ea8:	ebfff632 	bl	10778 <OS_CPU_SR_Save>
   12eac:	e5942004 	ldr	r2, [r4, #4]
   12eb0:	e1d231b6 	ldrh	r3, [r2, #22]
   12eb4:	e3530000 	cmp	r3, #0
   12eb8:	01a04003 	moveq	r4, r3
   12ebc:	0a000009 	beq	12ee8 <OSQAccept+0x5c>
   12ec0:	e5921010 	ldr	r1, [r2, #16]
   12ec4:	e2433001 	sub	r3, r3, #1
   12ec8:	e592e008 	ldr	lr, [r2, #8]
   12ecc:	e281c004 	add	ip, r1, #4
   12ed0:	e582c010 	str	ip, [r2, #16]
   12ed4:	e15c000e 	cmp	ip, lr
   12ed8:	e5914000 	ldr	r4, [r1]
   12edc:	e1c231b6 	strh	r3, [r2, #22]
   12ee0:	05923004 	ldreq	r3, [r2, #4]
   12ee4:	05823010 	streq	r3, [r2, #16]
   12ee8:	ebfff62a 	bl	10798 <OS_CPU_SR_Restore>
   12eec:	e1a00004 	mov	r0, r4
   12ef0:	e8bd8010 	pop	{r4, pc}
   12ef4:	e3a00000 	mov	r0, #0
   12ef8:	e12fff1e 	bx	lr

00012efc <OSQCreate>:
   12efc:	e92d43f8 	push	{r3, r4, r5, r6, r7, r8, r9, lr}
   12f00:	e3063535 	movw	r3, #25909	; 0x6535
   12f04:	e3403001 	movt	r3, #1
   12f08:	e5d35000 	ldrb	r5, [r3]
   12f0c:	e3550000 	cmp	r5, #0
   12f10:	1a000029 	bne	12fbc <OSQCreate+0xc0>
   12f14:	e3067530 	movw	r7, #25904	; 0x6530
   12f18:	e1a08000 	mov	r8, r0
   12f1c:	e3407001 	movt	r7, #1
   12f20:	e1a09001 	mov	r9, r1
   12f24:	ebfff613 	bl	10778 <OS_CPU_SR_Save>
   12f28:	e5974000 	ldr	r4, [r7]
   12f2c:	e3540000 	cmp	r4, #0
   12f30:	0a000023 	beq	12fc4 <OSQCreate+0xc8>
   12f34:	e5943004 	ldr	r3, [r4, #4]
   12f38:	e5873000 	str	r3, [r7]
   12f3c:	ebfff615 	bl	10798 <OS_CPU_SR_Restore>
   12f40:	ebfff60c 	bl	10778 <OS_CPU_SR_Save>
   12f44:	e3063520 	movw	r3, #25888	; 0x6520
   12f48:	e3403001 	movt	r3, #1
   12f4c:	e5936000 	ldr	r6, [r3]
   12f50:	e3560000 	cmp	r6, #0
   12f54:	0a00001d 	beq	12fd0 <OSQCreate+0xd4>
   12f58:	e5962000 	ldr	r2, [r6]
   12f5c:	e5832000 	str	r2, [r3]
   12f60:	ebfff60c 	bl	10798 <OS_CPU_SR_Restore>
   12f64:	e5868004 	str	r8, [r6, #4]
   12f68:	e0882109 	add	r2, r8, r9, lsl #2
   12f6c:	e586800c 	str	r8, [r6, #12]
   12f70:	e3a03002 	mov	r3, #2
   12f74:	e5868010 	str	r8, [r6, #16]
   12f78:	e1a00004 	mov	r0, r4
   12f7c:	e5862008 	str	r2, [r6, #8]
   12f80:	e1c691b4 	strh	r9, [r6, #20]
   12f84:	e1c651b6 	strh	r5, [r6, #22]
   12f88:	e1c450b2 	strh	r5, [r4, #2]
   12f8c:	e5846004 	str	r6, [r4, #4]
   12f90:	e5c45001 	strb	r5, [r4, #1]
   12f94:	e5c45008 	strb	r5, [r4, #8]
   12f98:	e5c45009 	strb	r5, [r4, #9]
   12f9c:	e5c4500a 	strb	r5, [r4, #10]
   12fa0:	e5c4500b 	strb	r5, [r4, #11]
   12fa4:	e5c4500c 	strb	r5, [r4, #12]
   12fa8:	e5c4500d 	strb	r5, [r4, #13]
   12fac:	e5c4500e 	strb	r5, [r4, #14]
   12fb0:	e5c4500f 	strb	r5, [r4, #15]
   12fb4:	e5c43000 	strb	r3, [r4]
   12fb8:	e8bd83f8 	pop	{r3, r4, r5, r6, r7, r8, r9, pc}
   12fbc:	e3a00000 	mov	r0, #0
   12fc0:	e8bd83f8 	pop	{r3, r4, r5, r6, r7, r8, r9, pc}
   12fc4:	ebfff5f3 	bl	10798 <OS_CPU_SR_Restore>
   12fc8:	e1a00004 	mov	r0, r4
   12fcc:	e8bd83f8 	pop	{r3, r4, r5, r6, r7, r8, r9, pc}
   12fd0:	e5973000 	ldr	r3, [r7]
   12fd4:	e5843004 	str	r3, [r4, #4]
   12fd8:	e5874000 	str	r4, [r7]
   12fdc:	ebfff5ed 	bl	10798 <OS_CPU_SR_Restore>
   12fe0:	e1a00006 	mov	r0, r6
   12fe4:	e8bd83f8 	pop	{r3, r4, r5, r6, r7, r8, r9, pc}

00012fe8 <OSQDel>:
   12fe8:	e3063535 	movw	r3, #25909	; 0x6535
   12fec:	e92d40f0 	push	{r4, r5, r6, r7, lr}
   12ff0:	e3403001 	movt	r3, #1
   12ff4:	e1a05002 	mov	r5, r2
   12ff8:	e24dd00c 	sub	sp, sp, #12
   12ffc:	e5d33000 	ldrb	r3, [r3]
   13000:	e3530000 	cmp	r3, #0
   13004:	13e03073 	mvnne	r3, #115	; 0x73
   13008:	13a00000 	movne	r0, #0
   1300c:	15c23000 	strbne	r3, [r2]
   13010:	1a00000a 	bne	13040 <OSQDel+0x58>
   13014:	e3500000 	cmp	r0, #0
   13018:	e1a04000 	mov	r4, r0
   1301c:	03a03004 	moveq	r3, #4
   13020:	05c23000 	strbeq	r3, [r2]
   13024:	0a000005 	beq	13040 <OSQDel+0x58>
   13028:	e5d43000 	ldrb	r3, [r4]
   1302c:	e3530002 	cmp	r3, #2
   13030:	0a000004 	beq	13048 <OSQDel+0x60>
   13034:	e3a03001 	mov	r3, #1
   13038:	e1a00004 	mov	r0, r4
   1303c:	e5c23000 	strb	r3, [r2]
   13040:	e28dd00c 	add	sp, sp, #12
   13044:	e8bd80f0 	pop	{r4, r5, r6, r7, pc}
   13048:	e58d1004 	str	r1, [sp, #4]
   1304c:	ebfff5c9 	bl	10778 <OS_CPU_SR_Save>
   13050:	e5d46001 	ldrb	r6, [r4, #1]
   13054:	e1a07000 	mov	r7, r0
   13058:	e59d1004 	ldr	r1, [sp, #4]
   1305c:	e3560000 	cmp	r6, #0
   13060:	0a000020 	beq	130e8 <OSQDel+0x100>
   13064:	e3510000 	cmp	r1, #0
   13068:	0a00002a 	beq	13118 <OSQDel+0x130>
   1306c:	e3510001 	cmp	r1, #1
   13070:	1a000020 	bne	130f8 <OSQDel+0x110>
   13074:	e1a06001 	mov	r6, r1
   13078:	e1a00004 	mov	r0, r4
   1307c:	e3a01000 	mov	r1, #0
   13080:	e3a02004 	mov	r2, #4
   13084:	ebfff749 	bl	10db0 <OS_EventTaskRdy>
   13088:	e5d43001 	ldrb	r3, [r4, #1]
   1308c:	e3530000 	cmp	r3, #0
   13090:	1afffff8 	bne	13078 <OSQDel+0x90>
   13094:	e3062520 	movw	r2, #25888	; 0x6520
   13098:	e5941004 	ldr	r1, [r4, #4]
   1309c:	e3402001 	movt	r2, #1
   130a0:	e3063530 	movw	r3, #25904	; 0x6530
   130a4:	e3403001 	movt	r3, #1
   130a8:	e3a0c000 	mov	ip, #0
   130ac:	e1a00007 	mov	r0, r7
   130b0:	e592e000 	ldr	lr, [r2]
   130b4:	e581e000 	str	lr, [r1]
   130b8:	e5821000 	str	r1, [r2]
   130bc:	e5c4c000 	strb	ip, [r4]
   130c0:	e5932000 	ldr	r2, [r3]
   130c4:	e5842004 	str	r2, [r4, #4]
   130c8:	e5834000 	str	r4, [r3]
   130cc:	ebfff5b1 	bl	10798 <OS_CPU_SR_Restore>
   130d0:	e3560001 	cmp	r6, #1
   130d4:	0a00000d 	beq	13110 <OSQDel+0x128>
   130d8:	e3a04000 	mov	r4, #0
   130dc:	e5c54000 	strb	r4, [r5]
   130e0:	e1a00004 	mov	r0, r4
   130e4:	eaffffd5 	b	13040 <OSQDel+0x58>
   130e8:	e3510000 	cmp	r1, #0
   130ec:	0a00000e 	beq	1312c <OSQDel+0x144>
   130f0:	e3510001 	cmp	r1, #1
   130f4:	0affffe6 	beq	13094 <OSQDel+0xac>
   130f8:	e1a00007 	mov	r0, r7
   130fc:	ebfff5a5 	bl	10798 <OS_CPU_SR_Restore>
   13100:	e3a03007 	mov	r3, #7
   13104:	e1a00004 	mov	r0, r4
   13108:	e5c53000 	strb	r3, [r5]
   1310c:	eaffffcb 	b	13040 <OSQDel+0x58>
   13110:	ebfff78b 	bl	10f44 <OS_Sched>
   13114:	eaffffef 	b	130d8 <OSQDel+0xf0>
   13118:	ebfff59e 	bl	10798 <OS_CPU_SR_Restore>
   1311c:	e3a03008 	mov	r3, #8
   13120:	e1a00004 	mov	r0, r4
   13124:	e5c53000 	strb	r3, [r5]
   13128:	eaffffc4 	b	13040 <OSQDel+0x58>
   1312c:	e3062520 	movw	r2, #25888	; 0x6520
   13130:	e594c004 	ldr	ip, [r4, #4]
   13134:	e3402001 	movt	r2, #1
   13138:	e3063530 	movw	r3, #25904	; 0x6530
   1313c:	e3403001 	movt	r3, #1
   13140:	e58d1004 	str	r1, [sp, #4]
   13144:	e592e000 	ldr	lr, [r2]
   13148:	e58ce000 	str	lr, [ip]
   1314c:	e582c000 	str	ip, [r2]
   13150:	e5c41000 	strb	r1, [r4]
   13154:	e5932000 	ldr	r2, [r3]
   13158:	e5842004 	str	r2, [r4, #4]
   1315c:	e5834000 	str	r4, [r3]
   13160:	ebfff58c 	bl	10798 <OS_CPU_SR_Restore>
   13164:	e59d1004 	ldr	r1, [sp, #4]
   13168:	e5c51000 	strb	r1, [r5]
   1316c:	e1a00001 	mov	r0, r1
   13170:	eaffffb2 	b	13040 <OSQDel+0x58>

00013174 <OSQFlush>:
   13174:	e3500000 	cmp	r0, #0
   13178:	0a000004 	beq	13190 <OSQFlush+0x1c>
   1317c:	e5d03000 	ldrb	r3, [r0]
   13180:	e3530002 	cmp	r3, #2
   13184:	0a000003 	beq	13198 <OSQFlush+0x24>
   13188:	e3a00001 	mov	r0, #1
   1318c:	e12fff1e 	bx	lr
   13190:	e3a00004 	mov	r0, #4
   13194:	e12fff1e 	bx	lr
   13198:	e92d4010 	push	{r4, lr}
   1319c:	e1a04000 	mov	r4, r0
   131a0:	ebfff574 	bl	10778 <OS_CPU_SR_Save>
   131a4:	e5943004 	ldr	r3, [r4, #4]
   131a8:	e3a04000 	mov	r4, #0
   131ac:	e5932004 	ldr	r2, [r3, #4]
   131b0:	e583200c 	str	r2, [r3, #12]
   131b4:	e5832010 	str	r2, [r3, #16]
   131b8:	e1c341b6 	strh	r4, [r3, #22]
   131bc:	ebfff575 	bl	10798 <OS_CPU_SR_Restore>
   131c0:	e1a00004 	mov	r0, r4
   131c4:	e8bd8010 	pop	{r4, pc}

000131c8 <OSQPend>:
   131c8:	e92d43f8 	push	{r3, r4, r5, r6, r7, r8, r9, lr}
   131cc:	e3063535 	movw	r3, #25909	; 0x6535
   131d0:	e1a05000 	mov	r5, r0
   131d4:	e3403001 	movt	r3, #1
   131d8:	e1a07002 	mov	r7, r2
   131dc:	e5d30000 	ldrb	r0, [r3]
   131e0:	e3500000 	cmp	r0, #0
   131e4:	1a000037 	bne	132c8 <OSQPend+0x100>
   131e8:	e3550000 	cmp	r5, #0
   131ec:	0a000039 	beq	132d8 <OSQPend+0x110>
   131f0:	e5d53000 	ldrb	r3, [r5]
   131f4:	e3530002 	cmp	r3, #2
   131f8:	1a000016 	bne	13258 <OSQPend+0x90>
   131fc:	e1a08001 	mov	r8, r1
   13200:	ebfff55c 	bl	10778 <OS_CPU_SR_Save>
   13204:	e5953004 	ldr	r3, [r5, #4]
   13208:	e1a09000 	mov	r9, r0
   1320c:	e1d361b6 	ldrh	r6, [r3, #22]
   13210:	e3560000 	cmp	r6, #0
   13214:	0a000012 	beq	13264 <OSQPend+0x9c>
   13218:	e5932010 	ldr	r2, [r3, #16]
   1321c:	e2466001 	sub	r6, r6, #1
   13220:	e5930008 	ldr	r0, [r3, #8]
   13224:	e2821004 	add	r1, r2, #4
   13228:	e5831010 	str	r1, [r3, #16]
   1322c:	e1510000 	cmp	r1, r0
   13230:	e1a00009 	mov	r0, r9
   13234:	e5924000 	ldr	r4, [r2]
   13238:	05932004 	ldreq	r2, [r3, #4]
   1323c:	e1c361b6 	strh	r6, [r3, #22]
   13240:	05832010 	streq	r2, [r3, #16]
   13244:	ebfff553 	bl	10798 <OS_CPU_SR_Restore>
   13248:	e3a03000 	mov	r3, #0
   1324c:	e1a00004 	mov	r0, r4
   13250:	e5c73000 	strb	r3, [r7]
   13254:	e8bd83f8 	pop	{r3, r4, r5, r6, r7, r8, r9, pc}
   13258:	e3a03001 	mov	r3, #1
   1325c:	e5c23000 	strb	r3, [r2]
   13260:	e8bd83f8 	pop	{r3, r4, r5, r6, r7, r8, r9, pc}
   13264:	e3064538 	movw	r4, #25912	; 0x6538
   13268:	e1a00005 	mov	r0, r5
   1326c:	e3404001 	movt	r4, #1
   13270:	e5943000 	ldr	r3, [r4]
   13274:	e5d3202c 	ldrb	r2, [r3, #44]	; 0x2c
   13278:	e1c382ba 	strh	r8, [r3, #42]	; 0x2a
   1327c:	e3822004 	orr	r2, r2, #4
   13280:	e5c3202c 	strb	r2, [r3, #44]	; 0x2c
   13284:	ebfff6f4 	bl	10e5c <OS_EventTaskWait>
   13288:	e1a00009 	mov	r0, r9
   1328c:	ebfff541 	bl	10798 <OS_CPU_SR_Restore>
   13290:	ebfff72b 	bl	10f44 <OS_Sched>
   13294:	ebfff537 	bl	10778 <OS_CPU_SR_Save>
   13298:	e5943000 	ldr	r3, [r4]
   1329c:	e1a08000 	mov	r8, r0
   132a0:	e5934020 	ldr	r4, [r3, #32]
   132a4:	e3540000 	cmp	r4, #0
   132a8:	0a00000e 	beq	132e8 <OSQPend+0x120>
   132ac:	e5836020 	str	r6, [r3, #32]
   132b0:	e5c3602c 	strb	r6, [r3, #44]	; 0x2c
   132b4:	e583601c 	str	r6, [r3, #28]
   132b8:	ebfff536 	bl	10798 <OS_CPU_SR_Restore>
   132bc:	e5c76000 	strb	r6, [r7]
   132c0:	e1a00004 	mov	r0, r4
   132c4:	e8bd83f8 	pop	{r3, r4, r5, r6, r7, r8, r9, pc}
   132c8:	e3a03002 	mov	r3, #2
   132cc:	e3a00000 	mov	r0, #0
   132d0:	e5c23000 	strb	r3, [r2]
   132d4:	e8bd83f8 	pop	{r3, r4, r5, r6, r7, r8, r9, pc}
   132d8:	e3a03004 	mov	r3, #4
   132dc:	e1a00005 	mov	r0, r5
   132e0:	e5c23000 	strb	r3, [r2]
   132e4:	e8bd83f8 	pop	{r3, r4, r5, r6, r7, r8, r9, pc}
   132e8:	e1a00005 	mov	r0, r5
   132ec:	ebfff6f7 	bl	10ed0 <OS_EventTO>
   132f0:	e1a00008 	mov	r0, r8
   132f4:	ebfff527 	bl	10798 <OS_CPU_SR_Restore>
   132f8:	e3a0300a 	mov	r3, #10
   132fc:	e1a00004 	mov	r0, r4
   13300:	e5c73000 	strb	r3, [r7]
   13304:	e8bd83f8 	pop	{r3, r4, r5, r6, r7, r8, r9, pc}

00013308 <OSQPost>:
   13308:	e3500000 	cmp	r0, #0
   1330c:	e92d40f8 	push	{r3, r4, r5, r6, r7, lr}
   13310:	03a04004 	moveq	r4, #4
   13314:	0a000006 	beq	13334 <OSQPost+0x2c>
   13318:	e3510000 	cmp	r1, #0
   1331c:	03a04003 	moveq	r4, #3
   13320:	0a000003 	beq	13334 <OSQPost+0x2c>
   13324:	e5d03000 	ldrb	r3, [r0]
   13328:	e3530002 	cmp	r3, #2
   1332c:	13a04001 	movne	r4, #1
   13330:	0a000001 	beq	1333c <OSQPost+0x34>
   13334:	e1a00004 	mov	r0, r4
   13338:	e8bd80f8 	pop	{r3, r4, r5, r6, r7, pc}
   1333c:	e1a05000 	mov	r5, r0
   13340:	e1a06001 	mov	r6, r1
   13344:	ebfff50b 	bl	10778 <OS_CPU_SR_Save>
   13348:	e1a07000 	mov	r7, r0
   1334c:	e5d54001 	ldrb	r4, [r5, #1]
   13350:	e3540000 	cmp	r4, #0
   13354:	1a000015 	bne	133b0 <OSQPost+0xa8>
   13358:	e5953004 	ldr	r3, [r5, #4]
   1335c:	e1d321b6 	ldrh	r2, [r3, #22]
   13360:	e1d311b4 	ldrh	r1, [r3, #20]
   13364:	e1510002 	cmp	r1, r2
   13368:	9a00000d 	bls	133a4 <OSQPost+0x9c>
   1336c:	e593100c 	ldr	r1, [r3, #12]
   13370:	e2822001 	add	r2, r2, #1
   13374:	e2810004 	add	r0, r1, #4
   13378:	e583000c 	str	r0, [r3, #12]
   1337c:	e5816000 	str	r6, [r1]
   13380:	e1a00007 	mov	r0, r7
   13384:	e1c321b6 	strh	r2, [r3, #22]
   13388:	e593100c 	ldr	r1, [r3, #12]
   1338c:	e5932008 	ldr	r2, [r3, #8]
   13390:	e1510002 	cmp	r1, r2
   13394:	05932004 	ldreq	r2, [r3, #4]
   13398:	0583200c 	streq	r2, [r3, #12]
   1339c:	ebfff4fd 	bl	10798 <OS_CPU_SR_Restore>
   133a0:	eaffffe3 	b	13334 <OSQPost+0x2c>
   133a4:	ebfff4fb 	bl	10798 <OS_CPU_SR_Restore>
   133a8:	e3a0401e 	mov	r4, #30
   133ac:	eaffffe0 	b	13334 <OSQPost+0x2c>
   133b0:	e1a01006 	mov	r1, r6
   133b4:	e3a02004 	mov	r2, #4
   133b8:	e1a00005 	mov	r0, r5
   133bc:	e3a04000 	mov	r4, #0
   133c0:	ebfff67a 	bl	10db0 <OS_EventTaskRdy>
   133c4:	e1a00007 	mov	r0, r7
   133c8:	ebfff4f2 	bl	10798 <OS_CPU_SR_Restore>
   133cc:	ebfff6dc 	bl	10f44 <OS_Sched>
   133d0:	eaffffd7 	b	13334 <OSQPost+0x2c>

000133d4 <OSQPostFront>:
   133d4:	e3500000 	cmp	r0, #0
   133d8:	e92d40f8 	push	{r3, r4, r5, r6, r7, lr}
   133dc:	03a04004 	moveq	r4, #4
   133e0:	0a000006 	beq	13400 <OSQPostFront+0x2c>
   133e4:	e3510000 	cmp	r1, #0
   133e8:	03a04003 	moveq	r4, #3
   133ec:	0a000003 	beq	13400 <OSQPostFront+0x2c>
   133f0:	e5d03000 	ldrb	r3, [r0]
   133f4:	e3530002 	cmp	r3, #2
   133f8:	13a04001 	movne	r4, #1
   133fc:	0a000001 	beq	13408 <OSQPostFront+0x34>
   13400:	e1a00004 	mov	r0, r4
   13404:	e8bd80f8 	pop	{r3, r4, r5, r6, r7, pc}
   13408:	e1a05000 	mov	r5, r0
   1340c:	e1a06001 	mov	r6, r1
   13410:	ebfff4d8 	bl	10778 <OS_CPU_SR_Save>
   13414:	e1a07000 	mov	r7, r0
   13418:	e5d54001 	ldrb	r4, [r5, #1]
   1341c:	e3540000 	cmp	r4, #0
   13420:	1a000013 	bne	13474 <OSQPostFront+0xa0>
   13424:	e5953004 	ldr	r3, [r5, #4]
   13428:	e1d321b6 	ldrh	r2, [r3, #22]
   1342c:	e1d311b4 	ldrh	r1, [r3, #20]
   13430:	e1510002 	cmp	r1, r2
   13434:	9a00000b 	bls	13468 <OSQPostFront+0x94>
   13438:	e5931010 	ldr	r1, [r3, #16]
   1343c:	e2822001 	add	r2, r2, #1
   13440:	e5930004 	ldr	r0, [r3, #4]
   13444:	e1510000 	cmp	r1, r0
   13448:	e1a00007 	mov	r0, r7
   1344c:	05931008 	ldreq	r1, [r3, #8]
   13450:	e241c004 	sub	ip, r1, #4
   13454:	e583c010 	str	ip, [r3, #16]
   13458:	e5016004 	str	r6, [r1, #-4]
   1345c:	e1c321b6 	strh	r2, [r3, #22]
   13460:	ebfff4cc 	bl	10798 <OS_CPU_SR_Restore>
   13464:	eaffffe5 	b	13400 <OSQPostFront+0x2c>
   13468:	ebfff4ca 	bl	10798 <OS_CPU_SR_Restore>
   1346c:	e3a0401e 	mov	r4, #30
   13470:	eaffffe2 	b	13400 <OSQPostFront+0x2c>
   13474:	e1a01006 	mov	r1, r6
   13478:	e3a02004 	mov	r2, #4
   1347c:	e1a00005 	mov	r0, r5
   13480:	e3a04000 	mov	r4, #0
   13484:	ebfff649 	bl	10db0 <OS_EventTaskRdy>
   13488:	e1a00007 	mov	r0, r7
   1348c:	ebfff4c1 	bl	10798 <OS_CPU_SR_Restore>
   13490:	ebfff6ab 	bl	10f44 <OS_Sched>
   13494:	eaffffd9 	b	13400 <OSQPostFront+0x2c>

00013498 <OSQPostOpt>:
   13498:	e3500000 	cmp	r0, #0
   1349c:	e92d41f0 	push	{r4, r5, r6, r7, r8, lr}
   134a0:	03a05004 	moveq	r5, #4
   134a4:	0a000006 	beq	134c4 <OSQPostOpt+0x2c>
   134a8:	e3510000 	cmp	r1, #0
   134ac:	03a05003 	moveq	r5, #3
   134b0:	0a000003 	beq	134c4 <OSQPostOpt+0x2c>
   134b4:	e5d03000 	ldrb	r3, [r0]
   134b8:	e3530002 	cmp	r3, #2
   134bc:	13a05001 	movne	r5, #1
   134c0:	0a000001 	beq	134cc <OSQPostOpt+0x34>
   134c4:	e1a00005 	mov	r0, r5
   134c8:	e8bd81f0 	pop	{r4, r5, r6, r7, r8, pc}
   134cc:	e1a04000 	mov	r4, r0
   134d0:	e1a07002 	mov	r7, r2
   134d4:	e1a06001 	mov	r6, r1
   134d8:	ebfff4a6 	bl	10778 <OS_CPU_SR_Save>
   134dc:	e1a08000 	mov	r8, r0
   134e0:	e5d45001 	ldrb	r5, [r4, #1]
   134e4:	e3550000 	cmp	r5, #0
   134e8:	0a00000d 	beq	13524 <OSQPostOpt+0x8c>
   134ec:	e3170001 	tst	r7, #1
   134f0:	0a000021 	beq	1357c <OSQPostOpt+0xe4>
   134f4:	e1a00004 	mov	r0, r4
   134f8:	e1a01006 	mov	r1, r6
   134fc:	e3a02004 	mov	r2, #4
   13500:	ebfff62a 	bl	10db0 <OS_EventTaskRdy>
   13504:	e5d43001 	ldrb	r3, [r4, #1]
   13508:	e3530000 	cmp	r3, #0
   1350c:	1afffff8 	bne	134f4 <OSQPostOpt+0x5c>
   13510:	e1a00008 	mov	r0, r8
   13514:	e3a05000 	mov	r5, #0
   13518:	ebfff49e 	bl	10798 <OS_CPU_SR_Restore>
   1351c:	ebfff688 	bl	10f44 <OS_Sched>
   13520:	eaffffe7 	b	134c4 <OSQPostOpt+0x2c>
   13524:	e5943004 	ldr	r3, [r4, #4]
   13528:	e1d321b6 	ldrh	r2, [r3, #22]
   1352c:	e1d311b4 	ldrh	r1, [r3, #20]
   13530:	e1510002 	cmp	r1, r2
   13534:	9a00000d 	bls	13570 <OSQPostOpt+0xd8>
   13538:	e3170002 	tst	r7, #2
   1353c:	0a000013 	beq	13590 <OSQPostOpt+0xf8>
   13540:	e5931010 	ldr	r1, [r3, #16]
   13544:	e5930004 	ldr	r0, [r3, #4]
   13548:	e1510000 	cmp	r1, r0
   1354c:	05931008 	ldreq	r1, [r3, #8]
   13550:	e2410004 	sub	r0, r1, #4
   13554:	e5830010 	str	r0, [r3, #16]
   13558:	e5016004 	str	r6, [r1, #-4]
   1355c:	e2822001 	add	r2, r2, #1
   13560:	e1a00008 	mov	r0, r8
   13564:	e1c321b6 	strh	r2, [r3, #22]
   13568:	ebfff48a 	bl	10798 <OS_CPU_SR_Restore>
   1356c:	eaffffd4 	b	134c4 <OSQPostOpt+0x2c>
   13570:	ebfff488 	bl	10798 <OS_CPU_SR_Restore>
   13574:	e3a0501e 	mov	r5, #30
   13578:	eaffffd1 	b	134c4 <OSQPostOpt+0x2c>
   1357c:	e1a00004 	mov	r0, r4
   13580:	e1a01006 	mov	r1, r6
   13584:	e3a02004 	mov	r2, #4
   13588:	ebfff608 	bl	10db0 <OS_EventTaskRdy>
   1358c:	eaffffdf 	b	13510 <OSQPostOpt+0x78>
   13590:	e593100c 	ldr	r1, [r3, #12]
   13594:	e2810004 	add	r0, r1, #4
   13598:	e583000c 	str	r0, [r3, #12]
   1359c:	e5816000 	str	r6, [r1]
   135a0:	e5931008 	ldr	r1, [r3, #8]
   135a4:	e593000c 	ldr	r0, [r3, #12]
   135a8:	e1500001 	cmp	r0, r1
   135ac:	05931004 	ldreq	r1, [r3, #4]
   135b0:	0583100c 	streq	r1, [r3, #12]
   135b4:	eaffffe8 	b	1355c <OSQPostOpt+0xc4>

000135b8 <OSQQuery>:
   135b8:	e3500000 	cmp	r0, #0
   135bc:	0a000005 	beq	135d8 <OSQQuery+0x20>
   135c0:	e92d4038 	push	{r3, r4, r5, lr}
   135c4:	e5d03000 	ldrb	r3, [r0]
   135c8:	e3530002 	cmp	r3, #2
   135cc:	0a000003 	beq	135e0 <OSQQuery+0x28>
   135d0:	e3a00001 	mov	r0, #1
   135d4:	e8bd8038 	pop	{r3, r4, r5, pc}
   135d8:	e3a00004 	mov	r0, #4
   135dc:	e12fff1e 	bx	lr
   135e0:	e1a04000 	mov	r4, r0
   135e4:	e1a05001 	mov	r5, r1
   135e8:	ebfff462 	bl	10778 <OS_CPU_SR_Save>
   135ec:	e5d43001 	ldrb	r3, [r4, #1]
   135f0:	e5c53010 	strb	r3, [r5, #16]
   135f4:	e5d43008 	ldrb	r3, [r4, #8]
   135f8:	e5c53008 	strb	r3, [r5, #8]
   135fc:	e5d43009 	ldrb	r3, [r4, #9]
   13600:	e5c53009 	strb	r3, [r5, #9]
   13604:	e5d4300a 	ldrb	r3, [r4, #10]
   13608:	e5c5300a 	strb	r3, [r5, #10]
   1360c:	e5d4300b 	ldrb	r3, [r4, #11]
   13610:	e5c5300b 	strb	r3, [r5, #11]
   13614:	e5d4300c 	ldrb	r3, [r4, #12]
   13618:	e5c5300c 	strb	r3, [r5, #12]
   1361c:	e5d4300d 	ldrb	r3, [r4, #13]
   13620:	e5c5300d 	strb	r3, [r5, #13]
   13624:	e5d4300e 	ldrb	r3, [r4, #14]
   13628:	e5c5300e 	strb	r3, [r5, #14]
   1362c:	e5d4300f 	ldrb	r3, [r4, #15]
   13630:	e5c5300f 	strb	r3, [r5, #15]
   13634:	e5942004 	ldr	r2, [r4, #4]
   13638:	e1d231b6 	ldrh	r3, [r2, #22]
   1363c:	e3530000 	cmp	r3, #0
   13640:	05853000 	streq	r3, [r5]
   13644:	15921010 	ldrne	r1, [r2, #16]
   13648:	e1d221b4 	ldrh	r2, [r2, #20]
   1364c:	15911000 	ldrne	r1, [r1]
   13650:	15851000 	strne	r1, [r5]
   13654:	e1c520b6 	strh	r2, [r5, #6]
   13658:	e1c530b4 	strh	r3, [r5, #4]
   1365c:	ebfff44d 	bl	10798 <OS_CPU_SR_Restore>
   13660:	e3a00000 	mov	r0, #0
   13664:	e8bd8038 	pop	{r3, r4, r5, pc}

00013668 <OS_QInit>:
   13668:	e30634a4 	movw	r3, #25764	; 0x64a4
   1366c:	e3061520 	movw	r1, #25888	; 0x6520
   13670:	e3403001 	movt	r3, #1
   13674:	e3401001 	movt	r1, #1
   13678:	e1a02003 	mov	r2, r3
   1367c:	e2830048 	add	r0, r3, #72	; 0x48
   13680:	e52de004 	push	{lr}		; (str lr, [sp, #-4]!)
   13684:	e283e018 	add	lr, r3, #24
   13688:	e482e030 	str	lr, [r2], #48	; 0x30
   1368c:	e283c060 	add	ip, r3, #96	; 0x60
   13690:	e5830030 	str	r0, [r3, #48]	; 0x30
   13694:	e583c048 	str	ip, [r3, #72]	; 0x48
   13698:	e3a00000 	mov	r0, #0
   1369c:	e5813000 	str	r3, [r1]
   136a0:	e5830060 	str	r0, [r3, #96]	; 0x60
   136a4:	e5832018 	str	r2, [r3, #24]
   136a8:	e49df004 	pop	{pc}		; (ldr pc, [sp], #4)

000136ac <OSSemAccept>:
   136ac:	e3500000 	cmp	r0, #0
   136b0:	012fff1e 	bxeq	lr
   136b4:	e92d4038 	push	{r3, r4, r5, lr}
   136b8:	e5d03000 	ldrb	r3, [r0]
   136bc:	e3530003 	cmp	r3, #3
   136c0:	0a000001 	beq	136cc <OSSemAccept+0x20>
   136c4:	e3a00000 	mov	r0, #0
   136c8:	e8bd8038 	pop	{r3, r4, r5, pc}
   136cc:	e1a04000 	mov	r4, r0
   136d0:	ebfff428 	bl	10778 <OS_CPU_SR_Save>
   136d4:	e1d450b2 	ldrh	r5, [r4, #2]
   136d8:	e3550000 	cmp	r5, #0
   136dc:	12453001 	subne	r3, r5, #1
   136e0:	11c430b2 	strhne	r3, [r4, #2]
   136e4:	ebfff42b 	bl	10798 <OS_CPU_SR_Restore>
   136e8:	e1a00005 	mov	r0, r5
   136ec:	e8bd8038 	pop	{r3, r4, r5, pc}

000136f0 <OSSemCreate>:
   136f0:	e3063535 	movw	r3, #25909	; 0x6535
   136f4:	e92d4070 	push	{r4, r5, r6, lr}
   136f8:	e3403001 	movt	r3, #1
   136fc:	e5d35000 	ldrb	r5, [r3]
   13700:	e3550000 	cmp	r5, #0
   13704:	1a000018 	bne	1376c <OSSemCreate+0x7c>
   13708:	e1a06000 	mov	r6, r0
   1370c:	ebfff419 	bl	10778 <OS_CPU_SR_Save>
   13710:	e3063530 	movw	r3, #25904	; 0x6530
   13714:	e3403001 	movt	r3, #1
   13718:	e5934000 	ldr	r4, [r3]
   1371c:	e3540000 	cmp	r4, #0
   13720:	0a000013 	beq	13774 <OSSemCreate+0x84>
   13724:	e5942004 	ldr	r2, [r4, #4]
   13728:	e5832000 	str	r2, [r3]
   1372c:	ebfff419 	bl	10798 <OS_CPU_SR_Restore>
   13730:	e3a03003 	mov	r3, #3
   13734:	e1c460b2 	strh	r6, [r4, #2]
   13738:	e5845004 	str	r5, [r4, #4]
   1373c:	e1a00004 	mov	r0, r4
   13740:	e5c45001 	strb	r5, [r4, #1]
   13744:	e5c45008 	strb	r5, [r4, #8]
   13748:	e5c45009 	strb	r5, [r4, #9]
   1374c:	e5c4500a 	strb	r5, [r4, #10]
   13750:	e5c4500b 	strb	r5, [r4, #11]
   13754:	e5c4500c 	strb	r5, [r4, #12]
   13758:	e5c4500d 	strb	r5, [r4, #13]
   1375c:	e5c4500e 	strb	r5, [r4, #14]
   13760:	e5c4500f 	strb	r5, [r4, #15]
   13764:	e5c43000 	strb	r3, [r4]
   13768:	e8bd8070 	pop	{r4, r5, r6, pc}
   1376c:	e3a00000 	mov	r0, #0
   13770:	e8bd8070 	pop	{r4, r5, r6, pc}
   13774:	ebfff407 	bl	10798 <OS_CPU_SR_Restore>
   13778:	e1a00004 	mov	r0, r4
   1377c:	e8bd8070 	pop	{r4, r5, r6, pc}

00013780 <OSSemDel>:
   13780:	e3063535 	movw	r3, #25909	; 0x6535
   13784:	e92d40f0 	push	{r4, r5, r6, r7, lr}
   13788:	e3403001 	movt	r3, #1
   1378c:	e1a04000 	mov	r4, r0
   13790:	e24dd00c 	sub	sp, sp, #12
   13794:	e1a05002 	mov	r5, r2
   13798:	e5d33000 	ldrb	r3, [r3]
   1379c:	e3530000 	cmp	r3, #0
   137a0:	1a00000b 	bne	137d4 <OSSemDel+0x54>
   137a4:	e3500000 	cmp	r0, #0
   137a8:	03a03004 	moveq	r3, #4
   137ac:	05c23000 	strbeq	r3, [r2]
   137b0:	0a000005 	beq	137cc <OSSemDel+0x4c>
   137b4:	e5d43000 	ldrb	r3, [r4]
   137b8:	e3530003 	cmp	r3, #3
   137bc:	0a000008 	beq	137e4 <OSSemDel+0x64>
   137c0:	e3a03001 	mov	r3, #1
   137c4:	e1a00004 	mov	r0, r4
   137c8:	e5c23000 	strb	r3, [r2]
   137cc:	e28dd00c 	add	sp, sp, #12
   137d0:	e8bd80f0 	pop	{r4, r5, r6, r7, pc}
   137d4:	e3e03073 	mvn	r3, #115	; 0x73
   137d8:	e5c23000 	strb	r3, [r2]
   137dc:	e28dd00c 	add	sp, sp, #12
   137e0:	e8bd80f0 	pop	{r4, r5, r6, r7, pc}
   137e4:	e58d1004 	str	r1, [sp, #4]
   137e8:	ebfff3e2 	bl	10778 <OS_CPU_SR_Save>
   137ec:	e5d46001 	ldrb	r6, [r4, #1]
   137f0:	e1a07000 	mov	r7, r0
   137f4:	e59d1004 	ldr	r1, [sp, #4]
   137f8:	e3560000 	cmp	r6, #0
   137fc:	0a00000c 	beq	13834 <OSSemDel+0xb4>
   13800:	e3510000 	cmp	r1, #0
   13804:	0a00001d 	beq	13880 <OSSemDel+0x100>
   13808:	e3510001 	cmp	r1, #1
   1380c:	1a00002c 	bne	138c4 <OSSemDel+0x144>
   13810:	e1a06001 	mov	r6, r1
   13814:	e1a00004 	mov	r0, r4
   13818:	e3a01000 	mov	r1, #0
   1381c:	e3a02001 	mov	r2, #1
   13820:	ebfff562 	bl	10db0 <OS_EventTaskRdy>
   13824:	e5d43001 	ldrb	r3, [r4, #1]
   13828:	e3530000 	cmp	r3, #0
   1382c:	1afffff8 	bne	13814 <OSSemDel+0x94>
   13830:	ea000003 	b	13844 <OSSemDel+0xc4>
   13834:	e3510000 	cmp	r1, #0
   13838:	0a000015 	beq	13894 <OSSemDel+0x114>
   1383c:	e3510001 	cmp	r1, #1
   13840:	1a00001f 	bne	138c4 <OSSemDel+0x144>
   13844:	e3063530 	movw	r3, #25904	; 0x6530
   13848:	e3a02000 	mov	r2, #0
   1384c:	e3403001 	movt	r3, #1
   13850:	e5c42000 	strb	r2, [r4]
   13854:	e1a00007 	mov	r0, r7
   13858:	e5932000 	ldr	r2, [r3]
   1385c:	e5842004 	str	r2, [r4, #4]
   13860:	e5834000 	str	r4, [r3]
   13864:	ebfff3cb 	bl	10798 <OS_CPU_SR_Restore>
   13868:	e3560001 	cmp	r6, #1
   1386c:	0a00001a 	beq	138dc <OSSemDel+0x15c>
   13870:	e3a04000 	mov	r4, #0
   13874:	e5c54000 	strb	r4, [r5]
   13878:	e1a00004 	mov	r0, r4
   1387c:	eaffffd2 	b	137cc <OSSemDel+0x4c>
   13880:	ebfff3c4 	bl	10798 <OS_CPU_SR_Restore>
   13884:	e3a03008 	mov	r3, #8
   13888:	e1a00004 	mov	r0, r4
   1388c:	e5c53000 	strb	r3, [r5]
   13890:	eaffffcd 	b	137cc <OSSemDel+0x4c>
   13894:	e3063530 	movw	r3, #25904	; 0x6530
   13898:	e5c41000 	strb	r1, [r4]
   1389c:	e3403001 	movt	r3, #1
   138a0:	e58d1004 	str	r1, [sp, #4]
   138a4:	e5932000 	ldr	r2, [r3]
   138a8:	e5842004 	str	r2, [r4, #4]
   138ac:	e5834000 	str	r4, [r3]
   138b0:	ebfff3b8 	bl	10798 <OS_CPU_SR_Restore>
   138b4:	e59d1004 	ldr	r1, [sp, #4]
   138b8:	e5c51000 	strb	r1, [r5]
   138bc:	e1a00001 	mov	r0, r1
   138c0:	eaffffc1 	b	137cc <OSSemDel+0x4c>
   138c4:	e1a00007 	mov	r0, r7
   138c8:	ebfff3b2 	bl	10798 <OS_CPU_SR_Restore>
   138cc:	e3a03007 	mov	r3, #7
   138d0:	e1a00004 	mov	r0, r4
   138d4:	e5c53000 	strb	r3, [r5]
   138d8:	eaffffbb 	b	137cc <OSSemDel+0x4c>
   138dc:	ebfff598 	bl	10f44 <OS_Sched>
   138e0:	eaffffe2 	b	13870 <OSSemDel+0xf0>

000138e4 <OSSemPend>:
   138e4:	e3063535 	movw	r3, #25909	; 0x6535
   138e8:	e92d40f0 	push	{r4, r5, r6, r7, lr}
   138ec:	e3403001 	movt	r3, #1
   138f0:	e1a06002 	mov	r6, r2
   138f4:	e24dd00c 	sub	sp, sp, #12
   138f8:	e5d35000 	ldrb	r5, [r3]
   138fc:	e3550000 	cmp	r5, #0
   13900:	13a03002 	movne	r3, #2
   13904:	15c23000 	strbne	r3, [r2]
   13908:	1a000009 	bne	13934 <OSSemPend+0x50>
   1390c:	e3500000 	cmp	r0, #0
   13910:	e1a04000 	mov	r4, r0
   13914:	03a03004 	moveq	r3, #4
   13918:	05c23000 	strbeq	r3, [r2]
   1391c:	0a000004 	beq	13934 <OSSemPend+0x50>
   13920:	e5d03000 	ldrb	r3, [r0]
   13924:	e3530003 	cmp	r3, #3
   13928:	0a000003 	beq	1393c <OSSemPend+0x58>
   1392c:	e3a03001 	mov	r3, #1
   13930:	e5c23000 	strb	r3, [r2]
   13934:	e28dd00c 	add	sp, sp, #12
   13938:	e8bd80f0 	pop	{r4, r5, r6, r7, pc}
   1393c:	e58d1004 	str	r1, [sp, #4]
   13940:	ebfff38c 	bl	10778 <OS_CPU_SR_Save>
   13944:	e1d430b2 	ldrh	r3, [r4, #2]
   13948:	e1a07000 	mov	r7, r0
   1394c:	e59d1004 	ldr	r1, [sp, #4]
   13950:	e3530000 	cmp	r3, #0
   13954:	1a00001c 	bne	139cc <OSSemPend+0xe8>
   13958:	e3065538 	movw	r5, #25912	; 0x6538
   1395c:	e1a00004 	mov	r0, r4
   13960:	e3405001 	movt	r5, #1
   13964:	e5953000 	ldr	r3, [r5]
   13968:	e5d3202c 	ldrb	r2, [r3, #44]	; 0x2c
   1396c:	e1c312ba 	strh	r1, [r3, #42]	; 0x2a
   13970:	e3822001 	orr	r2, r2, #1
   13974:	e5c3202c 	strb	r2, [r3, #44]	; 0x2c
   13978:	ebfff537 	bl	10e5c <OS_EventTaskWait>
   1397c:	e1a00007 	mov	r0, r7
   13980:	ebfff384 	bl	10798 <OS_CPU_SR_Restore>
   13984:	ebfff56e 	bl	10f44 <OS_Sched>
   13988:	ebfff37a 	bl	10778 <OS_CPU_SR_Save>
   1398c:	e5952000 	ldr	r2, [r5]
   13990:	e1a07000 	mov	r7, r0
   13994:	e5d2302c 	ldrb	r3, [r2, #44]	; 0x2c
   13998:	e2135001 	ands	r5, r3, #1
   1399c:	1a000003 	bne	139b0 <OSSemPend+0xcc>
   139a0:	e582501c 	str	r5, [r2, #28]
   139a4:	ebfff37b 	bl	10798 <OS_CPU_SR_Restore>
   139a8:	e5c65000 	strb	r5, [r6]
   139ac:	eaffffe0 	b	13934 <OSSemPend+0x50>
   139b0:	e1a00004 	mov	r0, r4
   139b4:	ebfff545 	bl	10ed0 <OS_EventTO>
   139b8:	e1a00007 	mov	r0, r7
   139bc:	ebfff375 	bl	10798 <OS_CPU_SR_Restore>
   139c0:	e3a0300a 	mov	r3, #10
   139c4:	e5c63000 	strb	r3, [r6]
   139c8:	eaffffd9 	b	13934 <OSSemPend+0x50>
   139cc:	e2433001 	sub	r3, r3, #1
   139d0:	e1c430b2 	strh	r3, [r4, #2]
   139d4:	ebfff36f 	bl	10798 <OS_CPU_SR_Restore>
   139d8:	e5c65000 	strb	r5, [r6]
   139dc:	eaffffd4 	b	13934 <OSSemPend+0x50>

000139e0 <OSSemPost>:
   139e0:	e3500000 	cmp	r0, #0
   139e4:	e92d4070 	push	{r4, r5, r6, lr}
   139e8:	03a05004 	moveq	r5, #4
   139ec:	0a000003 	beq	13a00 <OSSemPost+0x20>
   139f0:	e5d03000 	ldrb	r3, [r0]
   139f4:	e3530003 	cmp	r3, #3
   139f8:	13a05001 	movne	r5, #1
   139fc:	0a000001 	beq	13a08 <OSSemPost+0x28>
   13a00:	e1a00005 	mov	r0, r5
   13a04:	e8bd8070 	pop	{r4, r5, r6, pc}
   13a08:	e1a04000 	mov	r4, r0
   13a0c:	ebfff359 	bl	10778 <OS_CPU_SR_Save>
   13a10:	e1a06000 	mov	r6, r0
   13a14:	e5d45001 	ldrb	r5, [r4, #1]
   13a18:	e3550000 	cmp	r5, #0
   13a1c:	1a00000a 	bne	13a4c <OSSemPost+0x6c>
   13a20:	e1d430b2 	ldrh	r3, [r4, #2]
   13a24:	e30f2fff 	movw	r2, #65535	; 0xffff
   13a28:	e1530002 	cmp	r3, r2
   13a2c:	0a000003 	beq	13a40 <OSSemPost+0x60>
   13a30:	e2833001 	add	r3, r3, #1
   13a34:	e1c430b2 	strh	r3, [r4, #2]
   13a38:	ebfff356 	bl	10798 <OS_CPU_SR_Restore>
   13a3c:	eaffffef 	b	13a00 <OSSemPost+0x20>
   13a40:	ebfff354 	bl	10798 <OS_CPU_SR_Restore>
   13a44:	e3a05032 	mov	r5, #50	; 0x32
   13a48:	eaffffec 	b	13a00 <OSSemPost+0x20>
   13a4c:	e3a01000 	mov	r1, #0
   13a50:	e3a02001 	mov	r2, #1
   13a54:	e1a00004 	mov	r0, r4
   13a58:	e1a05001 	mov	r5, r1
   13a5c:	ebfff4d3 	bl	10db0 <OS_EventTaskRdy>
   13a60:	e1a00006 	mov	r0, r6
   13a64:	ebfff34b 	bl	10798 <OS_CPU_SR_Restore>
   13a68:	ebfff535 	bl	10f44 <OS_Sched>
   13a6c:	eaffffe3 	b	13a00 <OSSemPost+0x20>

00013a70 <OSSemQuery>:
   13a70:	e3500000 	cmp	r0, #0
   13a74:	0a000005 	beq	13a90 <OSSemQuery+0x20>
   13a78:	e92d4038 	push	{r3, r4, r5, lr}
   13a7c:	e5d03000 	ldrb	r3, [r0]
   13a80:	e3530003 	cmp	r3, #3
   13a84:	0a000003 	beq	13a98 <OSSemQuery+0x28>
   13a88:	e3a00001 	mov	r0, #1
   13a8c:	e8bd8038 	pop	{r3, r4, r5, pc}
   13a90:	e3a00004 	mov	r0, #4
   13a94:	e12fff1e 	bx	lr
   13a98:	e1a04000 	mov	r4, r0
   13a9c:	e1a05001 	mov	r5, r1
   13aa0:	ebfff334 	bl	10778 <OS_CPU_SR_Save>
   13aa4:	e5d43001 	ldrb	r3, [r4, #1]
   13aa8:	e5c5300a 	strb	r3, [r5, #10]
   13aac:	e5d43008 	ldrb	r3, [r4, #8]
   13ab0:	e5c53002 	strb	r3, [r5, #2]
   13ab4:	e5d43009 	ldrb	r3, [r4, #9]
   13ab8:	e5c53003 	strb	r3, [r5, #3]
   13abc:	e5d4300a 	ldrb	r3, [r4, #10]
   13ac0:	e5c53004 	strb	r3, [r5, #4]
   13ac4:	e5d4300b 	ldrb	r3, [r4, #11]
   13ac8:	e5c53005 	strb	r3, [r5, #5]
   13acc:	e5d4300c 	ldrb	r3, [r4, #12]
   13ad0:	e5c53006 	strb	r3, [r5, #6]
   13ad4:	e5d4300d 	ldrb	r3, [r4, #13]
   13ad8:	e5c53007 	strb	r3, [r5, #7]
   13adc:	e5d4300e 	ldrb	r3, [r4, #14]
   13ae0:	e5c53008 	strb	r3, [r5, #8]
   13ae4:	e5d4300f 	ldrb	r3, [r4, #15]
   13ae8:	e5c53009 	strb	r3, [r5, #9]
   13aec:	e1d430b2 	ldrh	r3, [r4, #2]
   13af0:	e1c530b0 	strh	r3, [r5]
   13af4:	ebfff327 	bl	10798 <OS_CPU_SR_Restore>
   13af8:	e3a00000 	mov	r0, #0
   13afc:	e8bd8038 	pop	{r3, r4, r5, pc}

00013b00 <OSTaskChangePrio>:
   13b00:	e240303f 	sub	r3, r0, #63	; 0x3f
   13b04:	e351003e 	cmp	r1, #62	; 0x3e
   13b08:	93a02000 	movls	r2, #0
   13b0c:	83a02001 	movhi	r2, #1
   13b10:	e6ef3073 	uxtb	r3, r3
   13b14:	e92d43f0 	push	{r4, r5, r6, r7, r8, r9, lr}
   13b18:	e35300bf 	cmp	r3, #191	; 0xbf
   13b1c:	81a03002 	movhi	r3, r2
   13b20:	93823001 	orrls	r3, r2, #1
   13b24:	e1a04000 	mov	r4, r0
   13b28:	e3530000 	cmp	r3, #0
   13b2c:	e24dd00c 	sub	sp, sp, #12
   13b30:	13a0002a 	movne	r0, #42	; 0x2a
   13b34:	0a000001 	beq	13b40 <OSTaskChangePrio+0x40>
   13b38:	e28dd00c 	add	sp, sp, #12
   13b3c:	e8bd83f0 	pop	{r4, r5, r6, r7, r8, r9, pc}
   13b40:	e30751ac 	movw	r5, #29100	; 0x71ac
   13b44:	e58d1004 	str	r1, [sp, #4]
   13b48:	e3405001 	movt	r5, #1
   13b4c:	ebfff309 	bl	10778 <OS_CPU_SR_Save>
   13b50:	e59d1004 	ldr	r1, [sp, #4]
   13b54:	e7953101 	ldr	r3, [r5, r1, lsl #2]
   13b58:	e3530000 	cmp	r3, #0
   13b5c:	0a000002 	beq	13b6c <OSTaskChangePrio+0x6c>
   13b60:	ebfff30c 	bl	10798 <OS_CPU_SR_Restore>
   13b64:	e3a00028 	mov	r0, #40	; 0x28
   13b68:	eafffff2 	b	13b38 <OSTaskChangePrio+0x38>
   13b6c:	e3a03001 	mov	r3, #1
   13b70:	e58d1004 	str	r1, [sp, #4]
   13b74:	e7853101 	str	r3, [r5, r1, lsl #2]
   13b78:	ebfff306 	bl	10798 <OS_CPU_SR_Restore>
   13b7c:	e59d1004 	ldr	r1, [sp, #4]
   13b80:	e30437fc 	movw	r3, #18428	; 0x47fc
   13b84:	e3403001 	movt	r3, #1
   13b88:	e2017007 	and	r7, r1, #7
   13b8c:	e1a061a1 	lsr	r6, r1, #3
   13b90:	e0832006 	add	r2, r3, r6
   13b94:	e0833007 	add	r3, r3, r7
   13b98:	e5d28100 	ldrb	r8, [r2, #256]	; 0x100
   13b9c:	e5d39100 	ldrb	r9, [r3, #256]	; 0x100
   13ba0:	ebfff2f4 	bl	10778 <OS_CPU_SR_Save>
   13ba4:	e35400ff 	cmp	r4, #255	; 0xff
   13ba8:	e30721ac 	movw	r2, #29100	; 0x71ac
   13bac:	03063538 	movweq	r3, #25912	; 0x6538
   13bb0:	e59d1004 	ldr	r1, [sp, #4]
   13bb4:	03403001 	movteq	r3, #1
   13bb8:	e3402001 	movt	r2, #1
   13bbc:	05933000 	ldreq	r3, [r3]
   13bc0:	05d3402d 	ldrbeq	r4, [r3, #45]	; 0x2d
   13bc4:	e7953104 	ldr	r3, [r5, r4, lsl #2]
   13bc8:	e3530000 	cmp	r3, #0
   13bcc:	0a000035 	beq	13ca8 <OSTaskChangePrio+0x1a8>
   13bd0:	e3a0c000 	mov	ip, #0
   13bd4:	e782c104 	str	ip, [r2, r4, lsl #2]
   13bd8:	e3062528 	movw	r2, #25896	; 0x6528
   13bdc:	e5d3c02f 	ldrb	ip, [r3, #47]	; 0x2f
   13be0:	e3402001 	movt	r2, #1
   13be4:	e5d34030 	ldrb	r4, [r3, #48]	; 0x30
   13be8:	e7d2e00c 	ldrb	lr, [r2, ip]
   13bec:	e11e0004 	tst	lr, r4
   13bf0:	0a000018 	beq	13c58 <OSTaskChangePrio+0x158>
   13bf4:	e1cee004 	bic	lr, lr, r4
   13bf8:	e7c2e00c 	strb	lr, [r2, ip]
   13bfc:	e35e0000 	cmp	lr, #0
   13c00:	e306c524 	movw	ip, #25892	; 0x6524
   13c04:	0340c001 	movteq	ip, #1
   13c08:	1340c001 	movtne	ip, #1
   13c0c:	05d34031 	ldrbeq	r4, [r3, #49]	; 0x31
   13c10:	05dce000 	ldrbeq	lr, [ip]
   13c14:	15dce000 	ldrbne	lr, [ip]
   13c18:	01cee004 	biceq	lr, lr, r4
   13c1c:	e7d24006 	ldrb	r4, [r2, r6]
   13c20:	e18ee008 	orr	lr, lr, r8
   13c24:	e5cce000 	strb	lr, [ip]
   13c28:	e189c004 	orr	ip, r9, r4
   13c2c:	e7c2c006 	strb	ip, [r2, r6]
   13c30:	e7853101 	str	r3, [r5, r1, lsl #2]
   13c34:	e5c3102d 	strb	r1, [r3, #45]	; 0x2d
   13c38:	e5c3602f 	strb	r6, [r3, #47]	; 0x2f
   13c3c:	e5c3702e 	strb	r7, [r3, #46]	; 0x2e
   13c40:	e5c38031 	strb	r8, [r3, #49]	; 0x31
   13c44:	e5c39030 	strb	r9, [r3, #48]	; 0x30
   13c48:	ebfff2d2 	bl	10798 <OS_CPU_SR_Restore>
   13c4c:	ebfff4bc 	bl	10f44 <OS_Sched>
   13c50:	e3a00000 	mov	r0, #0
   13c54:	eaffffb7 	b	13b38 <OSTaskChangePrio+0x38>
   13c58:	e593201c 	ldr	r2, [r3, #28]
   13c5c:	e3520000 	cmp	r2, #0
   13c60:	0afffff2 	beq	13c30 <OSTaskChangePrio+0x130>
   13c64:	e082c00c 	add	ip, r2, ip
   13c68:	e5dce008 	ldrb	lr, [ip, #8]
   13c6c:	e1cee004 	bic	lr, lr, r4
   13c70:	e5cce008 	strb	lr, [ip, #8]
   13c74:	e35e0000 	cmp	lr, #0
   13c78:	05d2c001 	ldrbeq	ip, [r2, #1]
   13c7c:	05d3e031 	ldrbeq	lr, [r3, #49]	; 0x31
   13c80:	01ccc00e 	biceq	ip, ip, lr
   13c84:	05c2c001 	strbeq	ip, [r2, #1]
   13c88:	e082e006 	add	lr, r2, r6
   13c8c:	e5d2c001 	ldrb	ip, [r2, #1]
   13c90:	e188c00c 	orr	ip, r8, ip
   13c94:	e5c2c001 	strb	ip, [r2, #1]
   13c98:	e5de2008 	ldrb	r2, [lr, #8]
   13c9c:	e1892002 	orr	r2, r9, r2
   13ca0:	e5ce2008 	strb	r2, [lr, #8]
   13ca4:	eaffffe1 	b	13c30 <OSTaskChangePrio+0x130>
   13ca8:	e7823101 	str	r3, [r2, r1, lsl #2]
   13cac:	ebfff2b9 	bl	10798 <OS_CPU_SR_Restore>
   13cb0:	e3a00029 	mov	r0, #41	; 0x29
   13cb4:	eaffff9f 	b	13b38 <OSTaskChangePrio+0x38>

00013cb8 <OSTaskCreate>:
   13cb8:	e353003f 	cmp	r3, #63	; 0x3f
   13cbc:	9a000001 	bls	13cc8 <OSTaskCreate+0x10>
   13cc0:	e3a0002a 	mov	r0, #42	; 0x2a
   13cc4:	e12fff1e 	bx	lr
   13cc8:	e92d43f0 	push	{r4, r5, r6, r7, r8, r9, lr}
   13ccc:	e30781ac 	movw	r8, #29100	; 0x71ac
   13cd0:	e1a04003 	mov	r4, r3
   13cd4:	e3408001 	movt	r8, #1
   13cd8:	e24dd014 	sub	sp, sp, #20
   13cdc:	e1a07002 	mov	r7, r2
   13ce0:	e1a06001 	mov	r6, r1
   13ce4:	e1a05000 	mov	r5, r0
   13ce8:	ebfff2a2 	bl	10778 <OS_CPU_SR_Save>
   13cec:	e7989104 	ldr	r9, [r8, r4, lsl #2]
   13cf0:	e3590000 	cmp	r9, #0
   13cf4:	0a000003 	beq	13d08 <OSTaskCreate+0x50>
   13cf8:	ebfff2a6 	bl	10798 <OS_CPU_SR_Restore>
   13cfc:	e3a00028 	mov	r0, #40	; 0x28
   13d00:	e28dd014 	add	sp, sp, #20
   13d04:	e8bd83f0 	pop	{r4, r5, r6, r7, r8, r9, pc}
   13d08:	e3a03001 	mov	r3, #1
   13d0c:	e7883104 	str	r3, [r8, r4, lsl #2]
   13d10:	ebfff2a0 	bl	10798 <OS_CPU_SR_Restore>
   13d14:	e1a00005 	mov	r0, r5
   13d18:	e1a01006 	mov	r1, r6
   13d1c:	e1a02007 	mov	r2, r7
   13d20:	e1a03009 	mov	r3, r9
   13d24:	ebfff2dc 	bl	1089c <OSTaskStkInit>
   13d28:	e58d9000 	str	r9, [sp]
   13d2c:	e1a01000 	mov	r1, r0
   13d30:	e58d9004 	str	r9, [sp, #4]
   13d34:	e1a00004 	mov	r0, r4
   13d38:	e58d9008 	str	r9, [sp, #8]
   13d3c:	e1a02009 	mov	r2, r9
   13d40:	e1a03009 	mov	r3, r9
   13d44:	ebfff52f 	bl	11208 <OS_TCBInit>
   13d48:	e2505000 	subs	r5, r0, #0
   13d4c:	1a00000f 	bne	13d90 <OSTaskCreate+0xd8>
   13d50:	ebfff288 	bl	10778 <OS_CPU_SR_Save>
   13d54:	e306349d 	movw	r3, #25757	; 0x649d
   13d58:	e3403001 	movt	r3, #1
   13d5c:	e5d32000 	ldrb	r2, [r3]
   13d60:	e2822001 	add	r2, r2, #1
   13d64:	e5c32000 	strb	r2, [r3]
   13d68:	ebfff28a 	bl	10798 <OS_CPU_SR_Restore>
   13d6c:	e3053bdd 	movw	r3, #23517	; 0x5bdd
   13d70:	e3403001 	movt	r3, #1
   13d74:	e5d33000 	ldrb	r3, [r3]
   13d78:	e3530001 	cmp	r3, #1
   13d7c:	11a00005 	movne	r0, r5
   13d80:	1affffde 	bne	13d00 <OSTaskCreate+0x48>
   13d84:	ebfff46e 	bl	10f44 <OS_Sched>
   13d88:	e1a00005 	mov	r0, r5
   13d8c:	eaffffdb 	b	13d00 <OSTaskCreate+0x48>
   13d90:	ebfff278 	bl	10778 <OS_CPU_SR_Save>
   13d94:	e7889104 	str	r9, [r8, r4, lsl #2]
   13d98:	ebfff27e 	bl	10798 <OS_CPU_SR_Restore>
   13d9c:	e1a00005 	mov	r0, r5
   13da0:	eaffffd6 	b	13d00 <OSTaskCreate+0x48>

00013da4 <OSTaskCreateExt>:
   13da4:	e92d4070 	push	{r4, r5, r6, lr}
   13da8:	e353003f 	cmp	r3, #63	; 0x3f
   13dac:	e59d5014 	ldr	r5, [sp, #20]
   13db0:	e1dd61b0 	ldrh	r6, [sp, #16]
   13db4:	e59d4018 	ldr	r4, [sp, #24]
   13db8:	e59de01c 	ldr	lr, [sp, #28]
   13dbc:	e1ddc2b0 	ldrh	ip, [sp, #32]
   13dc0:	9a000001 	bls	13dcc <OSTaskCreateExt+0x28>
   13dc4:	e3a0002a 	mov	r0, #42	; 0x2a
   13dc8:	e8bd8070 	pop	{r4, r5, r6, pc}
   13dcc:	e58d6010 	str	r6, [sp, #16]
   13dd0:	e58dc020 	str	ip, [sp, #32]
   13dd4:	e8bd4070 	pop	{r4, r5, r6, lr}
   13dd8:	eafff558 	b	11340 <OSTaskCreateExt.part.0>

00013ddc <OSTaskDel>:
   13ddc:	e92d43f8 	push	{r3, r4, r5, r6, r7, r8, r9, lr}
   13de0:	e3063535 	movw	r3, #25909	; 0x6535
   13de4:	e3403001 	movt	r3, #1
   13de8:	e5d34000 	ldrb	r4, [r3]
   13dec:	e3540000 	cmp	r4, #0
   13df0:	13a0403f 	movne	r4, #63	; 0x3f
   13df4:	0a000001 	beq	13e00 <OSTaskDel+0x24>
   13df8:	e1a00004 	mov	r0, r4
   13dfc:	e8bd83f8 	pop	{r3, r4, r5, r6, r7, r8, r9, pc}
   13e00:	e350003f 	cmp	r0, #63	; 0x3f
   13e04:	e1a05000 	mov	r5, r0
   13e08:	03a0403d 	moveq	r4, #61	; 0x3d
   13e0c:	0afffff9 	beq	13df8 <OSTaskDel+0x1c>
   13e10:	e240303f 	sub	r3, r0, #63	; 0x3f
   13e14:	e6ef3073 	uxtb	r3, r3
   13e18:	e35300bf 	cmp	r3, #191	; 0xbf
   13e1c:	93a0402a 	movls	r4, #42	; 0x2a
   13e20:	9afffff4 	bls	13df8 <OSTaskDel+0x1c>
   13e24:	ebfff253 	bl	10778 <OS_CPU_SR_Save>
   13e28:	e35500ff 	cmp	r5, #255	; 0xff
   13e2c:	03063538 	movweq	r3, #25912	; 0x6538
   13e30:	e30781ac 	movw	r8, #29100	; 0x71ac
   13e34:	03403001 	movteq	r3, #1
   13e38:	e3408001 	movt	r8, #1
   13e3c:	05933000 	ldreq	r3, [r3]
   13e40:	05d3502d 	ldrbeq	r5, [r3, #45]	; 0x2d
   13e44:	e7986105 	ldr	r6, [r8, r5, lsl #2]
   13e48:	e3560000 	cmp	r6, #0
   13e4c:	0a000059 	beq	13fb8 <OSTaskDel+0x1dc>
   13e50:	e306c528 	movw	ip, #25896	; 0x6528
   13e54:	e5d6202f 	ldrb	r2, [r6, #47]	; 0x2f
   13e58:	e340c001 	movt	ip, #1
   13e5c:	e5d63030 	ldrb	r3, [r6, #48]	; 0x30
   13e60:	e1e03003 	mvn	r3, r3
   13e64:	e7dc1002 	ldrb	r1, [ip, r2]
   13e68:	e6ef3073 	uxtb	r3, r3
   13e6c:	e0011003 	and	r1, r1, r3
   13e70:	e7cc1002 	strb	r1, [ip, r2]
   13e74:	e3510000 	cmp	r1, #0
   13e78:	1a000005 	bne	13e94 <OSTaskDel+0xb8>
   13e7c:	e3061524 	movw	r1, #25892	; 0x6524
   13e80:	e5d6e031 	ldrb	lr, [r6, #49]	; 0x31
   13e84:	e3401001 	movt	r1, #1
   13e88:	e5d1c000 	ldrb	ip, [r1]
   13e8c:	e1ccc00e 	bic	ip, ip, lr
   13e90:	e5c1c000 	strb	ip, [r1]
   13e94:	e596101c 	ldr	r1, [r6, #28]
   13e98:	e3510000 	cmp	r1, #0
   13e9c:	0a000008 	beq	13ec4 <OSTaskDel+0xe8>
   13ea0:	e0812002 	add	r2, r1, r2
   13ea4:	e5d2c008 	ldrb	ip, [r2, #8]
   13ea8:	e003300c 	and	r3, r3, ip
   13eac:	e5c23008 	strb	r3, [r2, #8]
   13eb0:	e3530000 	cmp	r3, #0
   13eb4:	05d62031 	ldrbeq	r2, [r6, #49]	; 0x31
   13eb8:	05d13001 	ldrbeq	r3, [r1, #1]
   13ebc:	01c33002 	biceq	r3, r3, r2
   13ec0:	05c13001 	strbeq	r3, [r1, #1]
   13ec4:	e5963024 	ldr	r3, [r6, #36]	; 0x24
   13ec8:	e3530000 	cmp	r3, #0
   13ecc:	0a00000a 	beq	13efc <OSTaskDel+0x120>
   13ed0:	e5931004 	ldr	r1, [r3, #4]
   13ed4:	e5932000 	ldr	r2, [r3]
   13ed8:	e3510000 	cmp	r1, #0
   13edc:	0a000038 	beq	13fc4 <OSTaskDel+0x1e8>
   13ee0:	e3520000 	cmp	r2, #0
   13ee4:	e5812000 	str	r2, [r1]
   13ee8:	0a000000 	beq	13ef0 <OSTaskDel+0x114>
   13eec:	e5821004 	str	r1, [r2, #4]
   13ef0:	e5933008 	ldr	r3, [r3, #8]
   13ef4:	e3a02000 	mov	r2, #0
   13ef8:	e5832024 	str	r2, [r3, #36]	; 0x24
   13efc:	e3057bdc 	movw	r7, #23516	; 0x5bdc
   13f00:	e3a03000 	mov	r3, #0
   13f04:	e3407001 	movt	r7, #1
   13f08:	e1c632ba 	strh	r3, [r6, #42]	; 0x2a
   13f0c:	e5c6302c 	strb	r3, [r6, #44]	; 0x2c
   13f10:	e5d73000 	ldrb	r3, [r7]
   13f14:	e35300ff 	cmp	r3, #255	; 0xff
   13f18:	12833001 	addne	r3, r3, #1
   13f1c:	15c73000 	strbne	r3, [r7]
   13f20:	ebfff21c 	bl	10798 <OS_CPU_SR_Restore>
   13f24:	ebfff213 	bl	10778 <OS_CPU_SR_Save>
   13f28:	e3053bdc 	movw	r3, #23516	; 0x5bdc
   13f2c:	e5d72000 	ldrb	r2, [r7]
   13f30:	e3403001 	movt	r3, #1
   13f34:	e1a09000 	mov	r9, r0
   13f38:	e1a00006 	mov	r0, r6
   13f3c:	e3520000 	cmp	r2, #0
   13f40:	12422001 	subne	r2, r2, #1
   13f44:	15c32000 	strbne	r2, [r3]
   13f48:	ebfff283 	bl	1095c <OSTaskDelHook>
   13f4c:	e3a02000 	mov	r2, #0
   13f50:	e306349d 	movw	r3, #25757	; 0x649d
   13f54:	e7882105 	str	r2, [r8, r5, lsl #2]
   13f58:	e3403001 	movt	r3, #1
   13f5c:	e1a00009 	mov	r0, r9
   13f60:	e5961018 	ldr	r1, [r6, #24]
   13f64:	e5d32000 	ldrb	r2, [r3]
   13f68:	e3510000 	cmp	r1, #0
   13f6c:	e2422001 	sub	r2, r2, #1
   13f70:	e5c32000 	strb	r2, [r3]
   13f74:	15963014 	ldrne	r3, [r6, #20]
   13f78:	03053c28 	movweq	r3, #23592	; 0x5c28
   13f7c:	15813014 	strne	r3, [r1, #20]
   13f80:	03403001 	movteq	r3, #1
   13f84:	05962014 	ldreq	r2, [r6, #20]
   13f88:	15963014 	ldrne	r3, [r6, #20]
   13f8c:	05832000 	streq	r2, [r3]
   13f90:	05821018 	streq	r1, [r2, #24]
   13f94:	15831018 	strne	r1, [r3, #24]
   13f98:	e3063498 	movw	r3, #25752	; 0x6498
   13f9c:	e3403001 	movt	r3, #1
   13fa0:	e5932000 	ldr	r2, [r3]
   13fa4:	e5862014 	str	r2, [r6, #20]
   13fa8:	e5836000 	str	r6, [r3]
   13fac:	ebfff1f9 	bl	10798 <OS_CPU_SR_Restore>
   13fb0:	ebfff3e3 	bl	10f44 <OS_Sched>
   13fb4:	eaffff8f 	b	13df8 <OSTaskDel+0x1c>
   13fb8:	e3a0403c 	mov	r4, #60	; 0x3c
   13fbc:	ebfff1f5 	bl	10798 <OS_CPU_SR_Restore>
   13fc0:	eaffff8c 	b	13df8 <OSTaskDel+0x1c>
   13fc4:	e593c00c 	ldr	ip, [r3, #12]
   13fc8:	e3520000 	cmp	r2, #0
   13fcc:	e58c2004 	str	r2, [ip, #4]
   13fd0:	1affffc5 	bne	13eec <OSTaskDel+0x110>
   13fd4:	eaffffc5 	b	13ef0 <OSTaskDel+0x114>

00013fd8 <OSTaskDelReq>:
   13fd8:	e350003f 	cmp	r0, #63	; 0x3f
   13fdc:	0a000005 	beq	13ff8 <OSTaskDelReq+0x20>
   13fe0:	e240303f 	sub	r3, r0, #63	; 0x3f
   13fe4:	e6ef3073 	uxtb	r3, r3
   13fe8:	e35300bf 	cmp	r3, #191	; 0xbf
   13fec:	8a000003 	bhi	14000 <OSTaskDelReq+0x28>
   13ff0:	e3a0002a 	mov	r0, #42	; 0x2a
   13ff4:	e12fff1e 	bx	lr
   13ff8:	e3a0003d 	mov	r0, #61	; 0x3d
   13ffc:	e12fff1e 	bx	lr
   14000:	e35000ff 	cmp	r0, #255	; 0xff
   14004:	e92d4010 	push	{r4, lr}
   14008:	e1a04000 	mov	r4, r0
   1400c:	0a00000b 	beq	14040 <OSTaskDelReq+0x68>
   14010:	ebfff1d8 	bl	10778 <OS_CPU_SR_Save>
   14014:	e30731ac 	movw	r3, #29100	; 0x71ac
   14018:	e3403001 	movt	r3, #1
   1401c:	e7933104 	ldr	r3, [r3, r4, lsl #2]
   14020:	e3530000 	cmp	r3, #0
   14024:	13a0203e 	movne	r2, #62	; 0x3e
   14028:	13a04000 	movne	r4, #0
   1402c:	03a0400b 	moveq	r4, #11
   14030:	15c32032 	strbne	r2, [r3, #50]	; 0x32
   14034:	ebfff1d7 	bl	10798 <OS_CPU_SR_Restore>
   14038:	e1a00004 	mov	r0, r4
   1403c:	e8bd8010 	pop	{r4, pc}
   14040:	ebfff1cc 	bl	10778 <OS_CPU_SR_Save>
   14044:	e3063538 	movw	r3, #25912	; 0x6538
   14048:	e3403001 	movt	r3, #1
   1404c:	e5933000 	ldr	r3, [r3]
   14050:	e5d34032 	ldrb	r4, [r3, #50]	; 0x32
   14054:	ebfff1cf 	bl	10798 <OS_CPU_SR_Restore>
   14058:	e1a00004 	mov	r0, r4
   1405c:	e8bd8010 	pop	{r4, pc}

00014060 <OSTaskResume>:
   14060:	e350003e 	cmp	r0, #62	; 0x3e
   14064:	e92d4070 	push	{r4, r5, r6, lr}
   14068:	83a0402a 	movhi	r4, #42	; 0x2a
   1406c:	9a000001 	bls	14078 <OSTaskResume+0x18>
   14070:	e1a00004 	mov	r0, r4
   14074:	e8bd8070 	pop	{r4, r5, r6, pc}
   14078:	e1a04000 	mov	r4, r0
   1407c:	ebfff1bd 	bl	10778 <OS_CPU_SR_Save>
   14080:	e30731ac 	movw	r3, #29100	; 0x71ac
   14084:	e1a02000 	mov	r2, r0
   14088:	e3403001 	movt	r3, #1
   1408c:	e7933104 	ldr	r3, [r3, r4, lsl #2]
   14090:	e3530000 	cmp	r3, #0
   14094:	0a000020 	beq	1411c <OSTaskResume+0xbc>
   14098:	e5d3402c 	ldrb	r4, [r3, #44]	; 0x2c
   1409c:	e3140008 	tst	r4, #8
   140a0:	0a00000a 	beq	140d0 <OSTaskResume+0x70>
   140a4:	e20440f7 	and	r4, r4, #247	; 0xf7
   140a8:	e5c3402c 	strb	r4, [r3, #44]	; 0x2c
   140ac:	e3540000 	cmp	r4, #0
   140b0:	1a000002 	bne	140c0 <OSTaskResume+0x60>
   140b4:	e1d312ba 	ldrh	r1, [r3, #42]	; 0x2a
   140b8:	e3510000 	cmp	r1, #0
   140bc:	0a000006 	beq	140dc <OSTaskResume+0x7c>
   140c0:	e1a00002 	mov	r0, r2
   140c4:	e3a04000 	mov	r4, #0
   140c8:	ebfff1b2 	bl	10798 <OS_CPU_SR_Restore>
   140cc:	eaffffe7 	b	14070 <OSTaskResume+0x10>
   140d0:	ebfff1b0 	bl	10798 <OS_CPU_SR_Restore>
   140d4:	e3a04065 	mov	r4, #101	; 0x65
   140d8:	eaffffe4 	b	14070 <OSTaskResume+0x10>
   140dc:	e3061524 	movw	r1, #25892	; 0x6524
   140e0:	e3062528 	movw	r2, #25896	; 0x6528
   140e4:	e5d3e02f 	ldrb	lr, [r3, #47]	; 0x2f
   140e8:	e3401001 	movt	r1, #1
   140ec:	e3402001 	movt	r2, #1
   140f0:	e5d3c031 	ldrb	ip, [r3, #49]	; 0x31
   140f4:	e5d33030 	ldrb	r3, [r3, #48]	; 0x30
   140f8:	e5d16000 	ldrb	r6, [r1]
   140fc:	e7d2500e 	ldrb	r5, [r2, lr]
   14100:	e186c00c 	orr	ip, r6, ip
   14104:	e5c1c000 	strb	ip, [r1]
   14108:	e1853003 	orr	r3, r5, r3
   1410c:	e7c2300e 	strb	r3, [r2, lr]
   14110:	ebfff1a0 	bl	10798 <OS_CPU_SR_Restore>
   14114:	ebfff38a 	bl	10f44 <OS_Sched>
   14118:	eaffffd4 	b	14070 <OSTaskResume+0x10>
   1411c:	ebfff19d 	bl	10798 <OS_CPU_SR_Restore>
   14120:	e3a04064 	mov	r4, #100	; 0x64
   14124:	eaffffd1 	b	14070 <OSTaskResume+0x10>

00014128 <OSTaskStkChk>:
   14128:	e2403040 	sub	r3, r0, #64	; 0x40
   1412c:	e92d4070 	push	{r4, r5, r6, lr}
   14130:	e6ef3073 	uxtb	r3, r3
   14134:	e1a04000 	mov	r4, r0
   14138:	e35300be 	cmp	r3, #190	; 0xbe
   1413c:	8a000001 	bhi	14148 <OSTaskStkChk+0x20>
   14140:	e3a0002a 	mov	r0, #42	; 0x2a
   14144:	e8bd8070 	pop	{r4, r5, r6, pc}
   14148:	e3a03000 	mov	r3, #0
   1414c:	e5813000 	str	r3, [r1]
   14150:	e5813004 	str	r3, [r1, #4]
   14154:	e1a05001 	mov	r5, r1
   14158:	ebfff186 	bl	10778 <OS_CPU_SR_Save>
   1415c:	e35400ff 	cmp	r4, #255	; 0xff
   14160:	03063538 	movweq	r3, #25912	; 0x6538
   14164:	03403001 	movteq	r3, #1
   14168:	05933000 	ldreq	r3, [r3]
   1416c:	05d3402d 	ldrbeq	r4, [r3, #45]	; 0x2d
   14170:	e30731ac 	movw	r3, #29100	; 0x71ac
   14174:	e3403001 	movt	r3, #1
   14178:	e7933104 	ldr	r3, [r3, r4, lsl #2]
   1417c:	e3530000 	cmp	r3, #0
   14180:	0a000017 	beq	141e4 <OSTaskStkChk+0xbc>
   14184:	e1d321b0 	ldrh	r2, [r3, #16]
   14188:	e3120001 	tst	r2, #1
   1418c:	1a000002 	bne	1419c <OSTaskStkChk+0x74>
   14190:	ebfff180 	bl	10798 <OS_CPU_SR_Restore>
   14194:	e3a00082 	mov	r0, #130	; 0x82
   14198:	e8bd8070 	pop	{r4, r5, r6, pc}
   1419c:	e5936008 	ldr	r6, [r3, #8]
   141a0:	e593400c 	ldr	r4, [r3, #12]
   141a4:	ebfff17b 	bl	10798 <OS_CPU_SR_Restore>
   141a8:	e2862004 	add	r2, r6, #4
   141ac:	e5963000 	ldr	r3, [r6]
   141b0:	e3530000 	cmp	r3, #0
   141b4:	1a00000d 	bne	141f0 <OSTaskStkChk+0xc8>
   141b8:	e4921004 	ldr	r1, [r2], #4
   141bc:	e2833001 	add	r3, r3, #1
   141c0:	e3510000 	cmp	r1, #0
   141c4:	0afffffb 	beq	141b8 <OSTaskStkChk+0x90>
   141c8:	e1a02103 	lsl	r2, r3, #2
   141cc:	e0633004 	rsb	r3, r3, r4
   141d0:	e5852000 	str	r2, [r5]
   141d4:	e3a00000 	mov	r0, #0
   141d8:	e1a03103 	lsl	r3, r3, #2
   141dc:	e5853004 	str	r3, [r5, #4]
   141e0:	e8bd8070 	pop	{r4, r5, r6, pc}
   141e4:	ebfff16b 	bl	10798 <OS_CPU_SR_Restore>
   141e8:	e3a0000b 	mov	r0, #11
   141ec:	e8bd8070 	pop	{r4, r5, r6, pc}
   141f0:	e3a02000 	mov	r2, #0
   141f4:	e1a03002 	mov	r3, r2
   141f8:	eafffff3 	b	141cc <OSTaskStkChk+0xa4>

000141fc <OSTaskSuspend>:
   141fc:	e350003f 	cmp	r0, #63	; 0x3f
   14200:	e92d4038 	push	{r3, r4, r5, lr}
   14204:	e1a04000 	mov	r4, r0
   14208:	0a000005 	beq	14224 <OSTaskSuspend+0x28>
   1420c:	e240303f 	sub	r3, r0, #63	; 0x3f
   14210:	e6ef3073 	uxtb	r3, r3
   14214:	e35300bf 	cmp	r3, #191	; 0xbf
   14218:	8a000003 	bhi	1422c <OSTaskSuspend+0x30>
   1421c:	e3a0002a 	mov	r0, #42	; 0x2a
   14220:	e8bd8038 	pop	{r3, r4, r5, pc}
   14224:	e3a0005b 	mov	r0, #91	; 0x5b
   14228:	e8bd8038 	pop	{r3, r4, r5, pc}
   1422c:	ebfff151 	bl	10778 <OS_CPU_SR_Save>
   14230:	e35400ff 	cmp	r4, #255	; 0xff
   14234:	e3063538 	movw	r3, #25912	; 0x6538
   14238:	03a05001 	moveq	r5, #1
   1423c:	03403001 	movteq	r3, #1
   14240:	13403001 	movtne	r3, #1
   14244:	05933000 	ldreq	r3, [r3]
   14248:	15933000 	ldrne	r3, [r3]
   1424c:	05d3402d 	ldrbeq	r4, [r3, #45]	; 0x2d
   14250:	15d3502d 	ldrbne	r5, [r3, #45]	; 0x2d
   14254:	e30731ac 	movw	r3, #29100	; 0x71ac
   14258:	e3403001 	movt	r3, #1
   1425c:	10645005 	rsbne	r5, r4, r5
   14260:	116f5f15 	clzne	r5, r5
   14264:	e7933104 	ldr	r3, [r3, r4, lsl #2]
   14268:	11a052a5 	lsrne	r5, r5, #5
   1426c:	e3530000 	cmp	r3, #0
   14270:	0a00001a 	beq	142e0 <OSTaskSuspend+0xe4>
   14274:	e3061528 	movw	r1, #25896	; 0x6528
   14278:	e5d3c02f 	ldrb	ip, [r3, #47]	; 0x2f
   1427c:	e3401001 	movt	r1, #1
   14280:	e5d3e030 	ldrb	lr, [r3, #48]	; 0x30
   14284:	e7d1200c 	ldrb	r2, [r1, ip]
   14288:	e1c2200e 	bic	r2, r2, lr
   1428c:	e7c1200c 	strb	r2, [r1, ip]
   14290:	e3520000 	cmp	r2, #0
   14294:	0a000007 	beq	142b8 <OSTaskSuspend+0xbc>
   14298:	e5d3202c 	ldrb	r2, [r3, #44]	; 0x2c
   1429c:	e3822008 	orr	r2, r2, #8
   142a0:	e5c3202c 	strb	r2, [r3, #44]	; 0x2c
   142a4:	ebfff13b 	bl	10798 <OS_CPU_SR_Restore>
   142a8:	e3550001 	cmp	r5, #1
   142ac:	0a000008 	beq	142d4 <OSTaskSuspend+0xd8>
   142b0:	e3a00000 	mov	r0, #0
   142b4:	e8bd8038 	pop	{r3, r4, r5, pc}
   142b8:	e3062524 	movw	r2, #25892	; 0x6524
   142bc:	e5d3c031 	ldrb	ip, [r3, #49]	; 0x31
   142c0:	e3402001 	movt	r2, #1
   142c4:	e5d21000 	ldrb	r1, [r2]
   142c8:	e1c1100c 	bic	r1, r1, ip
   142cc:	e5c21000 	strb	r1, [r2]
   142d0:	eafffff0 	b	14298 <OSTaskSuspend+0x9c>
   142d4:	ebfff31a 	bl	10f44 <OS_Sched>
   142d8:	e3a00000 	mov	r0, #0
   142dc:	e8bd8038 	pop	{r3, r4, r5, pc}
   142e0:	ebfff12c 	bl	10798 <OS_CPU_SR_Restore>
   142e4:	e3a0005a 	mov	r0, #90	; 0x5a
   142e8:	e8bd8038 	pop	{r3, r4, r5, pc}

000142ec <OSTaskQuery>:
   142ec:	e2403040 	sub	r3, r0, #64	; 0x40
   142f0:	e92d4030 	push	{r4, r5, lr}
   142f4:	e6ef3073 	uxtb	r3, r3
   142f8:	e1a04000 	mov	r4, r0
   142fc:	e35300be 	cmp	r3, #190	; 0xbe
   14300:	e24dd00c 	sub	sp, sp, #12
   14304:	93a0002a 	movls	r0, #42	; 0x2a
   14308:	8a000001 	bhi	14314 <OSTaskQuery+0x28>
   1430c:	e28dd00c 	add	sp, sp, #12
   14310:	e8bd8030 	pop	{r4, r5, pc}
   14314:	e58d1004 	str	r1, [sp, #4]
   14318:	ebfff116 	bl	10778 <OS_CPU_SR_Save>
   1431c:	e35400ff 	cmp	r4, #255	; 0xff
   14320:	e1a05000 	mov	r5, r0
   14324:	03063538 	movweq	r3, #25912	; 0x6538
   14328:	e59d1004 	ldr	r1, [sp, #4]
   1432c:	03403001 	movteq	r3, #1
   14330:	05933000 	ldreq	r3, [r3]
   14334:	05d3402d 	ldrbeq	r4, [r3, #45]	; 0x2d
   14338:	e30731ac 	movw	r3, #29100	; 0x71ac
   1433c:	e3403001 	movt	r3, #1
   14340:	e7933104 	ldr	r3, [r3, r4, lsl #2]
   14344:	e3530000 	cmp	r3, #0
   14348:	0a000008 	beq	14370 <OSTaskQuery+0x84>
   1434c:	e3a02034 	mov	r2, #52	; 0x34
   14350:	e1a00001 	mov	r0, r1
   14354:	e1a01003 	mov	r1, r3
   14358:	eb0000ac 	bl	14610 <memcpy>
   1435c:	e1a00005 	mov	r0, r5
   14360:	ebfff10c 	bl	10798 <OS_CPU_SR_Restore>
   14364:	e3a00000 	mov	r0, #0
   14368:	e28dd00c 	add	sp, sp, #12
   1436c:	e8bd8030 	pop	{r4, r5, pc}
   14370:	ebfff108 	bl	10798 <OS_CPU_SR_Restore>
   14374:	e3a00029 	mov	r0, #41	; 0x29
   14378:	eaffffe3 	b	1430c <OSTaskQuery+0x20>

0001437c <OSTimeDly>:
   1437c:	e3500000 	cmp	r0, #0
   14380:	012fff1e 	bxeq	lr
   14384:	eafff33f 	b	11088 <OSTimeDly.part.1>

00014388 <OSTimeDlyHMSM>:
   14388:	e181c002 	orr	ip, r1, r2
   1438c:	e190c00c 	orrs	ip, r0, ip
   14390:	13a0c001 	movne	ip, #1
   14394:	03a0c000 	moveq	ip, #0
   14398:	e3530000 	cmp	r3, #0
   1439c:	138cc001 	orrne	ip, ip, #1
   143a0:	e35c0000 	cmp	ip, #0
   143a4:	1a000001 	bne	143b0 <OSTimeDlyHMSM+0x28>
   143a8:	e3a00054 	mov	r0, #84	; 0x54
   143ac:	e12fff1e 	bx	lr
   143b0:	e351003b 	cmp	r1, #59	; 0x3b
   143b4:	9a000001 	bls	143c0 <OSTimeDlyHMSM+0x38>
   143b8:	e3a00051 	mov	r0, #81	; 0x51
   143bc:	e12fff1e 	bx	lr
   143c0:	e352003b 	cmp	r2, #59	; 0x3b
   143c4:	9a000001 	bls	143d0 <OSTimeDlyHMSM+0x48>
   143c8:	e3a00052 	mov	r0, #82	; 0x52
   143cc:	e12fff1e 	bx	lr
   143d0:	e3530ffa 	cmp	r3, #1000	; 0x3e8
   143d4:	3a000001 	bcc	143e0 <OSTimeDlyHMSM+0x58>
   143d8:	e3a00053 	mov	r0, #83	; 0x53
   143dc:	e12fff1e 	bx	lr
   143e0:	e92d4038 	push	{r3, r4, r5, lr}
   143e4:	e3a0e064 	mov	lr, #100	; 0x64
   143e8:	e3045dd3 	movw	r5, #19923	; 0x4dd3
   143ec:	e3a0c03c 	mov	ip, #60	; 0x3c
   143f0:	e3415062 	movt	r5, #4194	; 0x1062
   143f4:	e003039e 	mul	r3, lr, r3
   143f8:	e101218c 	smlabb	r1, ip, r1, r2
   143fc:	e2833f7d 	add	r3, r3, #500	; 0x1f4
   14400:	e3a02ee1 	mov	r2, #3600	; 0xe10
   14404:	e0854593 	umull	r4, r5, r3, r5
   14408:	e0201092 	mla	r0, r2, r0, r1
   1440c:	e1a04325 	lsr	r4, r5, #6
   14410:	e024409e 	mla	r4, lr, r0, r4
   14414:	e6ff0074 	uxth	r0, r4
   14418:	e1a04824 	lsr	r4, r4, #16
   1441c:	e3500000 	cmp	r0, #0
   14420:	e6ff5074 	uxth	r5, r4
   14424:	1a00000b 	bne	14458 <OSTimeDlyHMSM+0xd0>
   14428:	e3540000 	cmp	r4, #0
   1442c:	0a000007 	beq	14450 <OSTimeDlyHMSM+0xc8>
   14430:	e2455001 	sub	r5, r5, #1
   14434:	e3a00902 	mov	r0, #32768	; 0x8000
   14438:	ebfff312 	bl	11088 <OSTimeDly.part.1>
   1443c:	e3a00902 	mov	r0, #32768	; 0x8000
   14440:	e6ff5075 	uxth	r5, r5
   14444:	ebfff30f 	bl	11088 <OSTimeDly.part.1>
   14448:	e3550000 	cmp	r5, #0
   1444c:	1afffff7 	bne	14430 <OSTimeDlyHMSM+0xa8>
   14450:	e3a00000 	mov	r0, #0
   14454:	e8bd8038 	pop	{r3, r4, r5, pc}
   14458:	ebfff30a 	bl	11088 <OSTimeDly.part.1>
   1445c:	eafffff1 	b	14428 <OSTimeDlyHMSM+0xa0>

00014460 <OSTimeDlyResume>:
   14460:	e350003e 	cmp	r0, #62	; 0x3e
   14464:	e92d4070 	push	{r4, r5, r6, lr}
   14468:	83a0402a 	movhi	r4, #42	; 0x2a
   1446c:	9a000001 	bls	14478 <OSTimeDlyResume+0x18>
   14470:	e1a00004 	mov	r0, r4
   14474:	e8bd8070 	pop	{r4, r5, r6, pc}
   14478:	e1a04000 	mov	r4, r0
   1447c:	ebfff0bd 	bl	10778 <OS_CPU_SR_Save>
   14480:	e30731ac 	movw	r3, #29100	; 0x71ac
   14484:	e3403001 	movt	r3, #1
   14488:	e7933104 	ldr	r3, [r3, r4, lsl #2]
   1448c:	e3530000 	cmp	r3, #0
   14490:	0a00001e 	beq	14510 <OSTimeDlyResume+0xb0>
   14494:	e1d322ba 	ldrh	r2, [r3, #42]	; 0x2a
   14498:	e3520000 	cmp	r2, #0
   1449c:	0a000015 	beq	144f8 <OSTimeDlyResume+0x98>
   144a0:	e5d3402c 	ldrb	r4, [r3, #44]	; 0x2c
   144a4:	e3a05000 	mov	r5, #0
   144a8:	e1c352ba 	strh	r5, [r3, #42]	; 0x2a
   144ac:	e2044008 	and	r4, r4, #8
   144b0:	e21440ff 	ands	r4, r4, #255	; 0xff
   144b4:	1a000012 	bne	14504 <OSTimeDlyResume+0xa4>
   144b8:	e3061524 	movw	r1, #25892	; 0x6524
   144bc:	e3062528 	movw	r2, #25896	; 0x6528
   144c0:	e5d3e02f 	ldrb	lr, [r3, #47]	; 0x2f
   144c4:	e3401001 	movt	r1, #1
   144c8:	e3402001 	movt	r2, #1
   144cc:	e5d3c031 	ldrb	ip, [r3, #49]	; 0x31
   144d0:	e5d33030 	ldrb	r3, [r3, #48]	; 0x30
   144d4:	e5d16000 	ldrb	r6, [r1]
   144d8:	e7d2500e 	ldrb	r5, [r2, lr]
   144dc:	e186c00c 	orr	ip, r6, ip
   144e0:	e5c1c000 	strb	ip, [r1]
   144e4:	e1853003 	orr	r3, r5, r3
   144e8:	e7c2300e 	strb	r3, [r2, lr]
   144ec:	ebfff0a9 	bl	10798 <OS_CPU_SR_Restore>
   144f0:	ebfff293 	bl	10f44 <OS_Sched>
   144f4:	eaffffdd 	b	14470 <OSTimeDlyResume+0x10>
   144f8:	ebfff0a6 	bl	10798 <OS_CPU_SR_Restore>
   144fc:	e3a04050 	mov	r4, #80	; 0x50
   14500:	eaffffda 	b	14470 <OSTimeDlyResume+0x10>
   14504:	ebfff0a3 	bl	10798 <OS_CPU_SR_Restore>
   14508:	e1a04005 	mov	r4, r5
   1450c:	eaffffd7 	b	14470 <OSTimeDlyResume+0x10>
   14510:	ebfff0a0 	bl	10798 <OS_CPU_SR_Restore>
   14514:	e3a0400b 	mov	r4, #11
   14518:	eaffffd4 	b	14470 <OSTimeDlyResume+0x10>

0001451c <OSTimeGet>:
   1451c:	e92d4010 	push	{r4, lr}
   14520:	ebfff094 	bl	10778 <OS_CPU_SR_Save>
   14524:	e306353c 	movw	r3, #25916	; 0x653c
   14528:	e3403001 	movt	r3, #1
   1452c:	e5934000 	ldr	r4, [r3]
   14530:	ebfff098 	bl	10798 <OS_CPU_SR_Restore>
   14534:	e1a00004 	mov	r0, r4
   14538:	e8bd8010 	pop	{r4, pc}

0001453c <OSTimeSet>:
   1453c:	e92d4010 	push	{r4, lr}
   14540:	e1a04000 	mov	r4, r0
   14544:	ebfff08b 	bl	10778 <OS_CPU_SR_Save>
   14548:	e306353c 	movw	r3, #25916	; 0x653c
   1454c:	e3403001 	movt	r3, #1
   14550:	e5834000 	str	r4, [r3]
   14554:	e8bd4010 	pop	{r4, lr}
   14558:	eafff08e 	b	10798 <OS_CPU_SR_Restore>

0001455c <userApp2>:
   1455c:	e92d4008 	push	{r3, lr}
   14560:	e3a0001c 	mov	r0, #28
   14564:	e3a01801 	mov	r1, #65536	; 0x10000
   14568:	e3430f20 	movt	r0, #16160	; 0x3f20
   1456c:	ebffeeaa 	bl	1001c <PUT32>
   14570:	e3040904 	movw	r0, #18692	; 0x4904
   14574:	e3400001 	movt	r0, #1
   14578:	ebffef4a 	bl	102a8 <uart_string>
   1457c:	e3a00064 	mov	r0, #100	; 0x64
   14580:	ebffff7d 	bl	1437c <OSTimeDly>
   14584:	eafffff5 	b	14560 <userApp2+0x4>

00014588 <userApp1>:
   14588:	e92d4008 	push	{r3, lr}
   1458c:	e3040910 	movw	r0, #18704	; 0x4910
   14590:	e3400001 	movt	r0, #1
   14594:	ebffef43 	bl	102a8 <uart_string>
   14598:	e3a00064 	mov	r0, #100	; 0x64
   1459c:	ebffff76 	bl	1437c <OSTimeDly>
   145a0:	e3a00028 	mov	r0, #40	; 0x28
   145a4:	e3430f20 	movt	r0, #16160	; 0x3f20
   145a8:	e3a01801 	mov	r1, #65536	; 0x10000
   145ac:	ebffee9a 	bl	1001c <PUT32>
   145b0:	eafffff5 	b	1458c <userApp1+0x4>

000145b4 <uartrxApp>:
   145b4:	e92d4070 	push	{r4, r5, r6, lr}
   145b8:	e3044998 	movw	r4, #18840	; 0x4998
   145bc:	e3045994 	movw	r5, #18836	; 0x4994
   145c0:	e304699c 	movw	r6, #18844	; 0x499c
   145c4:	e3404001 	movt	r4, #1
   145c8:	e3405001 	movt	r5, #1
   145cc:	e3406001 	movt	r6, #1
   145d0:	e5942000 	ldr	r2, [r4]
   145d4:	e5953000 	ldr	r3, [r5]
   145d8:	e1520003 	cmp	r2, r3
   145dc:	0afffffb 	beq	145d0 <uartrxApp+0x1c>
   145e0:	e5943000 	ldr	r3, [r4]
   145e4:	e7d60003 	ldrb	r0, [r6, r3]
   145e8:	ebffeeb6 	bl	100c8 <uart_send>
   145ec:	e5943000 	ldr	r3, [r4]
   145f0:	e2833001 	add	r3, r3, #1
   145f4:	e7eb3053 	ubfx	r3, r3, #0, #12
   145f8:	e5843000 	str	r3, [r4]
   145fc:	e5942000 	ldr	r2, [r4]
   14600:	e5953000 	ldr	r3, [r5]
   14604:	e1520003 	cmp	r2, r3
   14608:	1afffff4 	bne	145e0 <uartrxApp+0x2c>
   1460c:	eaffffef 	b	145d0 <uartrxApp+0x1c>

00014610 <memcpy>:
   14610:	e352000f 	cmp	r2, #15
   14614:	e92d00f0 	push	{r4, r5, r6, r7}
   14618:	9a00002a 	bls	146c8 <memcpy+0xb8>
   1461c:	e1813000 	orr	r3, r1, r0
   14620:	e3130003 	tst	r3, #3
   14624:	1a000032 	bne	146f4 <memcpy+0xe4>
   14628:	e1a0c001 	mov	ip, r1
   1462c:	e1a03000 	mov	r3, r0
   14630:	e1a04002 	mov	r4, r2
   14634:	e59c5000 	ldr	r5, [ip]
   14638:	e5835000 	str	r5, [r3]
   1463c:	e59c5004 	ldr	r5, [ip, #4]
   14640:	e5835004 	str	r5, [r3, #4]
   14644:	e59c5008 	ldr	r5, [ip, #8]
   14648:	e5835008 	str	r5, [r3, #8]
   1464c:	e2444010 	sub	r4, r4, #16
   14650:	e59c500c 	ldr	r5, [ip, #12]
   14654:	e354000f 	cmp	r4, #15
   14658:	e583500c 	str	r5, [r3, #12]
   1465c:	e28cc010 	add	ip, ip, #16
   14660:	e2833010 	add	r3, r3, #16
   14664:	8afffff2 	bhi	14634 <memcpy+0x24>
   14668:	e2424010 	sub	r4, r2, #16
   1466c:	e3c4400f 	bic	r4, r4, #15
   14670:	e202c00f 	and	ip, r2, #15
   14674:	e2844010 	add	r4, r4, #16
   14678:	e35c0003 	cmp	ip, #3
   1467c:	e0803004 	add	r3, r0, r4
   14680:	e0811004 	add	r1, r1, r4
   14684:	9a00001c 	bls	146fc <memcpy+0xec>
   14688:	e24cc004 	sub	ip, ip, #4
   1468c:	e1a0712c 	lsr	r7, ip, #2
   14690:	e0816107 	add	r6, r1, r7, lsl #2
   14694:	e1a0c001 	mov	ip, r1
   14698:	e2866004 	add	r6, r6, #4
   1469c:	e1a04003 	mov	r4, r3
   146a0:	e49c5004 	ldr	r5, [ip], #4
   146a4:	e15c0006 	cmp	ip, r6
   146a8:	e4845004 	str	r5, [r4], #4
   146ac:	1afffffb 	bne	146a0 <memcpy+0x90>
   146b0:	e287c001 	add	ip, r7, #1
   146b4:	e1a0c10c 	lsl	ip, ip, #2
   146b8:	e2022003 	and	r2, r2, #3
   146bc:	e081100c 	add	r1, r1, ip
   146c0:	e083300c 	add	r3, r3, ip
   146c4:	ea000000 	b	146cc <memcpy+0xbc>
   146c8:	e1a03000 	mov	r3, r0
   146cc:	e3520000 	cmp	r2, #0
   146d0:	0a000005 	beq	146ec <memcpy+0xdc>
   146d4:	e2411001 	sub	r1, r1, #1
   146d8:	e0832002 	add	r2, r3, r2
   146dc:	e5f1c001 	ldrb	ip, [r1, #1]!
   146e0:	e4c3c001 	strb	ip, [r3], #1
   146e4:	e1530002 	cmp	r3, r2
   146e8:	1afffffb 	bne	146dc <memcpy+0xcc>
   146ec:	e8bd00f0 	pop	{r4, r5, r6, r7}
   146f0:	e12fff1e 	bx	lr
   146f4:	e1a03000 	mov	r3, r0
   146f8:	eafffff5 	b	146d4 <memcpy+0xc4>
   146fc:	e1a0200c 	mov	r2, ip
   14700:	eafffff1 	b	146cc <memcpy+0xbc>

00014704 <memset>:
   14704:	e3100003 	tst	r0, #3
   14708:	e92d0030 	push	{r4, r5}
   1470c:	e1a03000 	mov	r3, r0
   14710:	0a000037 	beq	147f4 <memset+0xf0>
   14714:	e3520000 	cmp	r2, #0
   14718:	e2422001 	sub	r2, r2, #1
   1471c:	0a000032 	beq	147ec <memset+0xe8>
   14720:	e20140ff 	and	r4, r1, #255	; 0xff
   14724:	ea000002 	b	14734 <memset+0x30>
   14728:	e3520000 	cmp	r2, #0
   1472c:	e2422001 	sub	r2, r2, #1
   14730:	0a00002d 	beq	147ec <memset+0xe8>
   14734:	e4c34001 	strb	r4, [r3], #1
   14738:	e3130003 	tst	r3, #3
   1473c:	e1a0c003 	mov	ip, r3
   14740:	1afffff8 	bne	14728 <memset+0x24>
   14744:	e3520003 	cmp	r2, #3
   14748:	9a000020 	bls	147d0 <memset+0xcc>
   1474c:	e20140ff 	and	r4, r1, #255	; 0xff
   14750:	e352000f 	cmp	r2, #15
   14754:	e1844404 	orr	r4, r4, r4, lsl #8
   14758:	e1844804 	orr	r4, r4, r4, lsl #16
   1475c:	81a0300c 	movhi	r3, ip
   14760:	81a05002 	movhi	r5, r2
   14764:	9a00000e 	bls	147a4 <memset+0xa0>
   14768:	e2455010 	sub	r5, r5, #16
   1476c:	e355000f 	cmp	r5, #15
   14770:	e5834000 	str	r4, [r3]
   14774:	e5834004 	str	r4, [r3, #4]
   14778:	e5834008 	str	r4, [r3, #8]
   1477c:	e583400c 	str	r4, [r3, #12]
   14780:	e2833010 	add	r3, r3, #16
   14784:	8afffff7 	bhi	14768 <memset+0x64>
   14788:	e2423010 	sub	r3, r2, #16
   1478c:	e3c3300f 	bic	r3, r3, #15
   14790:	e202200f 	and	r2, r2, #15
   14794:	e2833010 	add	r3, r3, #16
   14798:	e3520003 	cmp	r2, #3
   1479c:	e08cc003 	add	ip, ip, r3
   147a0:	9a00000a 	bls	147d0 <memset+0xcc>
   147a4:	e1a0500c 	mov	r5, ip
   147a8:	e1a03002 	mov	r3, r2
   147ac:	e2433004 	sub	r3, r3, #4
   147b0:	e3530003 	cmp	r3, #3
   147b4:	e4854004 	str	r4, [r5], #4
   147b8:	8afffffb 	bhi	147ac <memset+0xa8>
   147bc:	e2423004 	sub	r3, r2, #4
   147c0:	e3c33003 	bic	r3, r3, #3
   147c4:	e2833004 	add	r3, r3, #4
   147c8:	e2022003 	and	r2, r2, #3
   147cc:	e08cc003 	add	ip, ip, r3
   147d0:	e3520000 	cmp	r2, #0
   147d4:	120110ff 	andne	r1, r1, #255	; 0xff
   147d8:	108c2002 	addne	r2, ip, r2
   147dc:	0a000002 	beq	147ec <memset+0xe8>
   147e0:	e4cc1001 	strb	r1, [ip], #1
   147e4:	e15c0002 	cmp	ip, r2
   147e8:	1afffffc 	bne	147e0 <memset+0xdc>
   147ec:	e8bd0030 	pop	{r4, r5}
   147f0:	e12fff1e 	bx	lr
   147f4:	e1a0c000 	mov	ip, r0
   147f8:	eaffffd1 	b	14744 <memset+0x40>

Disassembly of section .rodata:

000147fc <OSUnMapTbl>:
   147fc:	00010000 	andeq	r0, r1, r0
   14800:	00010002 	andeq	r0, r1, r2
   14804:	00010003 	andeq	r0, r1, r3
   14808:	00010002 	andeq	r0, r1, r2
   1480c:	00010004 	andeq	r0, r1, r4
   14810:	00010002 	andeq	r0, r1, r2
   14814:	00010003 	andeq	r0, r1, r3
   14818:	00010002 	andeq	r0, r1, r2
   1481c:	00010005 	andeq	r0, r1, r5
   14820:	00010002 	andeq	r0, r1, r2
   14824:	00010003 	andeq	r0, r1, r3
   14828:	00010002 	andeq	r0, r1, r2
   1482c:	00010004 	andeq	r0, r1, r4
   14830:	00010002 	andeq	r0, r1, r2
   14834:	00010003 	andeq	r0, r1, r3
   14838:	00010002 	andeq	r0, r1, r2
   1483c:	00010006 	andeq	r0, r1, r6
   14840:	00010002 	andeq	r0, r1, r2
   14844:	00010003 	andeq	r0, r1, r3
   14848:	00010002 	andeq	r0, r1, r2
   1484c:	00010004 	andeq	r0, r1, r4
   14850:	00010002 	andeq	r0, r1, r2
   14854:	00010003 	andeq	r0, r1, r3
   14858:	00010002 	andeq	r0, r1, r2
   1485c:	00010005 	andeq	r0, r1, r5
   14860:	00010002 	andeq	r0, r1, r2
   14864:	00010003 	andeq	r0, r1, r3
   14868:	00010002 	andeq	r0, r1, r2
   1486c:	00010004 	andeq	r0, r1, r4
   14870:	00010002 	andeq	r0, r1, r2
   14874:	00010003 	andeq	r0, r1, r3
   14878:	00010002 	andeq	r0, r1, r2
   1487c:	00010007 	andeq	r0, r1, r7
   14880:	00010002 	andeq	r0, r1, r2
   14884:	00010003 	andeq	r0, r1, r3
   14888:	00010002 	andeq	r0, r1, r2
   1488c:	00010004 	andeq	r0, r1, r4
   14890:	00010002 	andeq	r0, r1, r2
   14894:	00010003 	andeq	r0, r1, r3
   14898:	00010002 	andeq	r0, r1, r2
   1489c:	00010005 	andeq	r0, r1, r5
   148a0:	00010002 	andeq	r0, r1, r2
   148a4:	00010003 	andeq	r0, r1, r3
   148a8:	00010002 	andeq	r0, r1, r2
   148ac:	00010004 	andeq	r0, r1, r4
   148b0:	00010002 	andeq	r0, r1, r2
   148b4:	00010003 	andeq	r0, r1, r3
   148b8:	00010002 	andeq	r0, r1, r2
   148bc:	00010006 	andeq	r0, r1, r6
   148c0:	00010002 	andeq	r0, r1, r2
   148c4:	00010003 	andeq	r0, r1, r3
   148c8:	00010002 	andeq	r0, r1, r2
   148cc:	00010004 	andeq	r0, r1, r4
   148d0:	00010002 	andeq	r0, r1, r2
   148d4:	00010003 	andeq	r0, r1, r3
   148d8:	00010002 	andeq	r0, r1, r2
   148dc:	00010005 	andeq	r0, r1, r5
   148e0:	00010002 	andeq	r0, r1, r2
   148e4:	00010003 	andeq	r0, r1, r3
   148e8:	00010002 	andeq	r0, r1, r2
   148ec:	00010004 	andeq	r0, r1, r4
   148f0:	00010002 	andeq	r0, r1, r2
   148f4:	00010003 	andeq	r0, r1, r3
   148f8:	00010002 	andeq	r0, r1, r2

000148fc <OSMapTbl>:
   148fc:	08040201 	stmdaeq	r4, {r0, r9}
   14900:	80402010 	subhi	r2, r0, r0, lsl r0

Disassembly of section .rodata.str1.4:

00014904 <.rodata.str1.4>:
   14904:	75206e69 	strvc	r6, [r0, #-3689]!	; 0xfffff197
   14908:	41726573 	cmnmi	r2, r3, ror r5
   1490c:	00327070 	eorseq	r7, r2, r0, ror r0
   14910:	75206e69 	strvc	r6, [r0, #-3689]!	; 0xfffff197
   14914:	41726573 	cmnmi	r2, r3, ror r5
   14918:	00317070 	eorseq	r7, r1, r0, ror r0

Disassembly of section .text.startup:

0001491c <main>:
   1491c:	e92d4008 	push	{r3, lr}
   14920:	ebffeecf 	bl	10464 <InitInterruptController>
   14924:	ebffef2b 	bl	105d8 <DisableInterrupts>
   14928:	ebffee0f 	bl	1016c <uart_init>
   1492c:	ebffee72 	bl	102fc <timer_init>
   14930:	ebfff6bc 	bl	12428 <OSInit>
   14934:	ebffef22 	bl	105c4 <EnableInterrupts>
   14938:	e3040588 	movw	r0, #17800	; 0x4588
   1493c:	e3a01000 	mov	r1, #0
   14940:	e59f2040 	ldr	r2, [pc, #64]	; 14988 <main+0x6c>
   14944:	e3a03005 	mov	r3, #5
   14948:	e3400001 	movt	r0, #1
   1494c:	ebfffcd9 	bl	13cb8 <OSTaskCreate>
   14950:	e304055c 	movw	r0, #17756	; 0x455c
   14954:	e3a01000 	mov	r1, #0
   14958:	e59f202c 	ldr	r2, [pc, #44]	; 1498c <main+0x70>
   1495c:	e3a03006 	mov	r3, #6
   14960:	e3400001 	movt	r0, #1
   14964:	ebfffcd3 	bl	13cb8 <OSTaskCreate>
   14968:	e30405b4 	movw	r0, #17844	; 0x45b4
   1496c:	e3a01000 	mov	r1, #0
   14970:	e59f2018 	ldr	r2, [pc, #24]	; 14990 <main+0x74>
   14974:	e3a03007 	mov	r3, #7
   14978:	e3400001 	movt	r0, #1
   1497c:	ebfffccd 	bl	13cb8 <OSTaskCreate>
   14980:	ebfff0b1 	bl	10c4c <OSStart>
   14984:	eafffffe 	b	14984 <main+0x68>
   14988:	0001824c 	andeq	r8, r1, ip, asr #4
   1498c:	000191ec 	andeq	r9, r1, ip, ror #3
   14990:	0001a18c 	andeq	sl, r1, ip, lsl #3

Disassembly of section .bss:

00014994 <__bss_end>:
   14994:	00000000 	andeq	r0, r0, r0

00014998 <rxtail>:
   14998:	00000000 	andeq	r0, r0, r0

0001499c <rxbuffer>:
	...

0001599c <g_VectorTable>:
	...

00015bdc <OSLockNesting>:
	...

00015bdd <OSRunning>:
   15bdd:	00000000 	andeq	r0, r0, r0

00015be0 <OSIdleCtr>:
   15be0:	00000000 	andeq	r0, r0, r0

00015be4 <OSPrioHighRdy>:
   15be4:	00000000 	andeq	r0, r0, r0

00015be8 <OSFlagTbl>:
	...

00015c24 <OSPrioCur>:
   15c24:	00000000 	andeq	r0, r0, r0

00015c28 <OSTCBList>:
   15c28:	00000000 	andeq	r0, r0, r0

00015c2c <OSMemTbl>:
	...

00015c90 <OSTaskStatStk>:
	...

00016490 <OSCtxSwCtr>:
   16490:	00000000 	andeq	r0, r0, r0

00016494 <OSIdleCtrMax>:
   16494:	00000000 	andeq	r0, r0, r0

00016498 <OSTCBFreeList>:
   16498:	00000000 	andeq	r0, r0, r0

0001649c <OSCPUUsage>:
	...

0001649d <OSTaskCtr>:
   1649d:	00000000 	andeq	r0, r0, r0

000164a0 <OSMemFreeList>:
   164a0:	00000000 	andeq	r0, r0, r0

000164a4 <OSQTbl>:
	...

0001651c <OSTCBHighRdy>:
   1651c:	00000000 	andeq	r0, r0, r0

00016520 <OSQFreeList>:
   16520:	00000000 	andeq	r0, r0, r0

00016524 <OSRdyGrp>:
   16524:	00000000 	andeq	r0, r0, r0

00016528 <OSRdyTbl>:
	...

00016530 <OSEventFreeList>:
   16530:	00000000 	andeq	r0, r0, r0

00016534 <OSIntExitY>:
	...

00016535 <OSIntNesting>:
   16535:	00000000 	andeq	r0, r0, r0

00016538 <OSTCBCur>:
   16538:	00000000 	andeq	r0, r0, r0

0001653c <OSTime>:
   1653c:	00000000 	andeq	r0, r0, r0

00016540 <OSTaskIdleStk>:
	...

00016d40 <OSEventTbl>:
	...

00016e30 <OSTCBTbl>:
	...

000171a4 <OSFlagFreeList>:
   171a4:	00000000 	andeq	r0, r0, r0

000171a8 <OSStatRdy>:
   171a8:	00000000 	andeq	r0, r0, r0

000171ac <OSTCBPrioTbl>:
	...

000172ac <OSIdleCtrRun>:
   172ac:	00000000 	andeq	r0, r0, r0

000172b0 <userAppTaskStk1>:
	...

00018250 <userAppTaskStk2>:
	...

000191f0 <uartAppTaskStk>:
	...

Disassembly of section .ARM.attributes:

00000000 <.ARM.attributes>:
   0:	00003541 	andeq	r3, r0, r1, asr #10
   4:	61656100 	cmnvs	r5, r0, lsl #2
   8:	01006962 	tsteq	r0, r2, ror #18
   c:	0000002b 	andeq	r0, r0, fp, lsr #32
  10:	726f4305 	rsbvc	r4, pc, #335544320	; 0x14000000
  14:	2d786574 	cfldr64cs	mvdx6, [r8, #-464]!	; 0xfffffe30
  18:	00333541 	eorseq	r3, r3, r1, asr #10
  1c:	41070e06 	tstmi	r7, r6, lsl #28
  20:	02090108 	andeq	r0, r9, #8, 2
  24:	01140412 	tsteq	r4, r2, lsl r4
  28:	03170115 	tsteq	r7, #1073741829	; 0x40000005
  2c:	011a0118 	tsteq	sl, r8, lsl r1
  30:	012a0122 			; <UNDEFINED> instruction: 0x012a0122
  34:	Address 0x0000000000000034 is out of bounds.


Disassembly of section .comment:

00000000 <.comment>:
   0:	3a434347 	bcc	10d0d24 <uartAppTaskStk+0x10b7b34>
   4:	35312820 	ldrcc	r2, [r1, #-2080]!	; 0xfffff7e0
   8:	392e343a 	stmdbcc	lr!, {r1, r3, r4, r5, sl, ip, sp}
   c:	732b332e 			; <UNDEFINED> instruction: 0x732b332e
  10:	33326e76 	teqcc	r2, #1888	; 0x760
  14:	37373131 			; <UNDEFINED> instruction: 0x37373131
  18:	2029312d 	eorcs	r3, r9, sp, lsr #2
  1c:	2e392e34 	mrccs	14, 1, r2, cr9, cr4, {1}
  20:	30322033 	eorscc	r2, r2, r3, lsr r0
  24:	35303531 	ldrcc	r3, [r0, #-1329]!	; 0xfffffacf
  28:	28203932 	stmdacs	r0!, {r1, r4, r5, r8, fp, ip, sp}
  2c:	72657270 	rsbvc	r7, r5, #112, 4
  30:	61656c65 	cmnvs	r5, r5, ror #24
  34:	00296573 	eoreq	r6, r9, r3, ror r5
  38:	3a434347 	bcc	10d0d5c <uartAppTaskStk+0x10b7b6c>
  3c:	4e472820 	cdpmi	8, 4, cr2, cr7, cr0, {1}
  40:	34202955 	strtcc	r2, [r0], #-2389	; 0xfffff6ab
  44:	322e372e 	eorcc	r3, lr, #12058624	; 0xb80000
	...

Disassembly of section .debug_info:

00000000 <.debug_info>:
   0:	00000132 	andeq	r0, r0, r2, lsr r1
   4:	00000002 	andeq	r0, r0, r2
   8:	01040000 	mrseq	r0, (UNDEF: 4)
   c:	00000021 	andeq	r0, r0, r1, lsr #32
  10:	0000ce01 	andeq	ip, r0, r1, lsl #28
  14:	00006f00 	andeq	r6, r0, r0, lsl #30
  18:	01461000 	mrseq	r1, (UNDEF: 70)
  1c:	01470400 	cmpeq	r7, r0, lsl #8
  20:	00000000 	andeq	r0, r0, r0
  24:	06010200 	streq	r0, [r1], -r0, lsl #4
  28:	00000050 	andeq	r0, r0, r0, asr r0
  2c:	4e080102 	adfmie	f0, f0, f2
  30:	02000000 	andeq	r0, r0, #0
  34:	01190502 	tsteq	r9, r2, lsl #10
  38:	02020000 	andeq	r0, r2, #0
  3c:	0000bb07 	andeq	fp, r0, r7, lsl #22
  40:	05040300 	streq	r0, [r4, #-768]	; 0xfffffd00
  44:	00746e69 	rsbseq	r6, r4, r9, ror #28
  48:	3c070402 	cfstrscc	mvf0, [r7], {2}
  4c:	02000000 	andeq	r0, r0, #0
  50:	00000508 	andeq	r0, r0, r8, lsl #10
  54:	08020000 	stmdaeq	r2, {}	; <UNPREDICTABLE>
  58:	00003207 	andeq	r3, r0, r7, lsl #4
  5c:	05040200 	streq	r0, [r4, #-512]	; 0xfffffe00
  60:	00000005 	andeq	r0, r0, r5
  64:	23070402 	movwcs	r0, #29698	; 0x7402
  68:	04000001 	streq	r0, [r0], #-1
  6c:	07040204 	streq	r0, [r4, -r4, lsl #4]
  70:	00000037 	andeq	r0, r0, r7, lsr r0
  74:	007a0405 	rsbseq	r0, sl, r5, lsl #8
  78:	01020000 	mrseq	r0, (UNDEF: 2)
  7c:	00005708 	andeq	r5, r0, r8, lsl #14
  80:	87040500 	strhi	r0, [r4, -r0, lsl #10]
  84:	06000000 	streq	r0, [r0], -r0
  88:	0000007a 	andeq	r0, r0, sl, ror r0
  8c:	00001a07 	andeq	r1, r0, r7, lsl #20
  90:	48d50300 	ldmmi	r5, {r8, r9}^
  94:	08000000 	stmdaeq	r0, {}	; <UNPREDICTABLE>
  98:	00006801 	andeq	r6, r0, r1, lsl #16
  9c:	01190200 	tsteq	r9, r0, lsl #4
  a0:	0000006b 	andeq	r0, r0, fp, rrx
  a4:	00014610 	andeq	r4, r1, r0, lsl r6
  a8:	00014704 	andeq	r4, r1, r4, lsl #14
  ac:	00000000 	andeq	r0, r0, r0
  b0:	00011d01 	andeq	r1, r1, r1, lsl #26
  b4:	00490900 	subeq	r0, r9, r0, lsl #18
  b8:	35010000 	strcc	r0, [r1, #-0]
  bc:	0000006b 	andeq	r0, r0, fp, rrx
  c0:	2d0a5001 	stccs	0, cr5, [sl, #-4]
  c4:	01000000 	mrseq	r0, (UNDEF: 0)
  c8:	00011d35 	andeq	r1, r1, r5, lsr sp
  cc:	00002000 	andeq	r2, r0, r0
  d0:	01140a00 	tsteq	r4, r0, lsl #20
  d4:	35010000 	strcc	r0, [r1, #-0]
  d8:	0000008c 	andeq	r0, r0, ip, lsl #1
  dc:	00000073 	andeq	r0, r0, r3, ror r0
  e0:	7473640b 	ldrbtvc	r6, [r3], #-1035	; 0xfffffbf5
  e4:	74470100 	strbvc	r0, [r7], #-256	; 0xffffff00
  e8:	fe000000 	cdp2	0, 0, cr0, cr0, cr0, {0}
  ec:	0b000000 	bleq	f4 <_start-0x7f0c>
  f0:	00637273 	rsbeq	r7, r3, r3, ror r2
  f4:	00814801 	addeq	r4, r1, r1, lsl #16
  f8:	01270000 			; <UNDEFINED> instruction: 0x01270000
  fc:	0e0c0000 	cdpeq	0, 0, cr0, cr12, cr0, {0}
 100:	01000000 	mrseq	r0, (UNDEF: 0)
 104:	00012449 	andeq	r2, r1, r9, asr #8
 108:	00017900 	andeq	r7, r1, r0, lsl #18
 10c:	005c0c00 	subseq	r0, ip, r0, lsl #24
 110:	4a010000 	bmi	40118 <uartAppTaskStk+0x26f28>
 114:	0000012a 	andeq	r0, r0, sl, lsr #2
 118:	000001d4 	ldrdeq	r0, [r0], -r4
 11c:	23040500 	movwcs	r0, #17664	; 0x4500
 120:	0d000001 	stceq	0, cr0, [r0, #-4]
 124:	005d0405 	subseq	r0, sp, r5, lsl #8
 128:	04050000 	streq	r0, [r5], #-0
 12c:	00000130 	andeq	r0, r0, r0, lsr r1
 130:	00005d06 	andeq	r5, r0, r6, lsl #26
 134:	01180000 	tsteq	r8, r0
 138:	00020000 	andeq	r0, r2, r0
 13c:	000000ab 	andeq	r0, r0, fp, lsr #1
 140:	00210104 	eoreq	r0, r1, r4, lsl #2
 144:	80010000 	andhi	r0, r1, r0
 148:	2c000001 	stccs	0, cr0, [r0], {1}
 14c:	04000001 	streq	r0, [r0], #-1
 150:	fc000147 	stc2	1, cr0, [r0], {71}	; 0x47
 154:	8b000147 	blhi	678 <_start-0x7988>
 158:	02000001 	andeq	r0, r0, #1
 15c:	00500601 	subseq	r0, r0, r1, lsl #12
 160:	01020000 	mrseq	r0, (UNDEF: 2)
 164:	00004e08 	andeq	r4, r0, r8, lsl #28
 168:	05020200 	streq	r0, [r2, #-512]	; 0xfffffe00
 16c:	00000119 	andeq	r0, r0, r9, lsl r1
 170:	bb070202 	bllt	1c0980 <uartAppTaskStk+0x1a7790>
 174:	03000000 	movweq	r0, #0
 178:	6e690504 	cdpvs	5, 6, cr0, cr9, cr4, {0}
 17c:	04020074 	streq	r0, [r2], #-116	; 0xffffff8c
 180:	00003c07 	andeq	r3, r0, r7, lsl #24
 184:	05080200 	streq	r0, [r8, #-512]	; 0xfffffe00
 188:	00000000 	andeq	r0, r0, r0
 18c:	32070802 	andcc	r0, r7, #131072	; 0x20000
 190:	02000000 	andeq	r0, r0, #0
 194:	00050504 	andeq	r0, r5, r4, lsl #10
 198:	04020000 	streq	r0, [r2], #-0
 19c:	00012307 	andeq	r2, r1, r7, lsl #6
 1a0:	02040400 	andeq	r0, r4, #0, 8
 1a4:	00370704 	eorseq	r0, r7, r4, lsl #14
 1a8:	04050000 	streq	r0, [r5], #-0
 1ac:	0000007a 	andeq	r0, r0, sl, ror r0
 1b0:	57080102 	strpl	r0, [r8, -r2, lsl #2]
 1b4:	06000000 	streq	r0, [r0], -r0
 1b8:	0000001a 	andeq	r0, r0, sl, lsl r0
 1bc:	0048d503 	subeq	sp, r8, r3, lsl #10
 1c0:	01070000 	mrseq	r0, (UNDEF: 7)
 1c4:	000001b9 			; <UNDEFINED> instruction: 0x000001b9
 1c8:	6b011b02 	blvs	46dd8 <uartAppTaskStk+0x2dbe8>
 1cc:	04000000 	streq	r0, [r0], #-0
 1d0:	fc000147 	stc2	1, cr0, [r0], {71}	; 0x47
 1d4:	31000147 	tstcc	r0, r7, asr #2
 1d8:	01000002 	tsteq	r0, r2
 1dc:	00000115 	andeq	r0, r0, r5, lsl r1
 1e0:	01006d08 	tsteq	r0, r8, lsl #26
 1e4:	00006b2b 	andeq	r6, r0, fp, lsr #22
 1e8:	09500100 	ldmdbeq	r0, {r8}^
 1ec:	2b010063 	blcs	40380 <uartAppTaskStk+0x27190>
 1f0:	00000041 	andeq	r0, r0, r1, asr #32
 1f4:	00000251 	andeq	r0, r0, r1, asr r2
 1f8:	01006e09 	tsteq	r0, r9, lsl #28
 1fc:	0000812b 	andeq	r8, r0, fp, lsr #2
 200:	00027d00 	andeq	r7, r2, r0, lsl #26
 204:	00730a00 	rsbseq	r0, r3, r0, lsl #20
 208:	00743001 	rsbseq	r3, r4, r1
 20c:	02ec0000 	rsceq	r0, ip, #0
 210:	690a0000 	stmdbvs	sl, {}	; <UNPREDICTABLE>
 214:	41330100 	teqmi	r3, r0, lsl #2
 218:	43000000 	movwmi	r0, #0
 21c:	0b000003 	bleq	230 <_start-0x7dd0>
 220:	000001c0 	andeq	r0, r0, r0, asr #3
 224:	006d3401 	rsbeq	r3, sp, r1, lsl #8
 228:	03580000 	cmpeq	r8, #0
 22c:	730b0000 	movwvc	r0, #45056	; 0xb000
 230:	01000001 	tsteq	r0, r1
 234:	00011535 	andeq	r1, r1, r5, lsr r5
 238:	00036b00 	andeq	r6, r3, r0, lsl #22
 23c:	00640a00 	rsbeq	r0, r4, r0, lsl #20
 240:	00483601 	subeq	r3, r8, r1, lsl #12
 244:	03d10000 	bicseq	r0, r1, #0
 248:	05000000 	streq	r0, [r0, #-0]
 24c:	00006d04 	andeq	r6, r0, r4, lsl #26
	...

Disassembly of section .debug_abbrev:

00000000 <.debug_abbrev>:
   0:	25011101 	strcs	r1, [r1, #-257]	; 0xfffffeff
   4:	030b130e 	movweq	r1, #45838	; 0xb30e
   8:	110e1b0e 	tstne	lr, lr, lsl #22
   c:	10011201 	andne	r1, r1, r1, lsl #4
  10:	02000006 	andeq	r0, r0, #6
  14:	0b0b0024 	bleq	2c00ac <uartAppTaskStk+0x2a6ebc>
  18:	0e030b3e 	vmoveq.16	d3[0], r0
  1c:	24030000 	strcs	r0, [r3], #-0
  20:	3e0b0b00 	vmlacc.f64	d0, d11, d0
  24:	0008030b 	andeq	r0, r8, fp, lsl #6
  28:	000f0400 	andeq	r0, pc, r0, lsl #8
  2c:	00000b0b 	andeq	r0, r0, fp, lsl #22
  30:	0b000f05 	bleq	3c4c <_start-0x43b4>
  34:	0013490b 	andseq	r4, r3, fp, lsl #18
  38:	00260600 	eoreq	r0, r6, r0, lsl #12
  3c:	00001349 	andeq	r1, r0, r9, asr #6
  40:	03001607 	movweq	r1, #1543	; 0x607
  44:	3b0b3a0e 	blcc	2ce884 <uartAppTaskStk+0x2b5694>
  48:	0013490b 	andseq	r4, r3, fp, lsl #18
  4c:	012e0800 			; <UNDEFINED> instruction: 0x012e0800
  50:	0e030c3f 	mcreq	12, 0, r0, cr3, cr15, {1}
  54:	0b3b0b3a 	bleq	ec2d44 <uartAppTaskStk+0xea9b54>
  58:	13490c27 	movtne	r0, #39975	; 0x9c27
  5c:	01120111 	tsteq	r2, r1, lsl r1
  60:	42970640 	addsmi	r0, r7, #64, 12	; 0x4000000
  64:	0013010c 	andseq	r0, r3, ip, lsl #2
  68:	00050900 	andeq	r0, r5, r0, lsl #18
  6c:	0b3a0e03 	bleq	e83880 <uartAppTaskStk+0xe6a690>
  70:	13490b3b 	movtne	r0, #39739	; 0x9b3b
  74:	00000a02 	andeq	r0, r0, r2, lsl #20
  78:	0300050a 	movweq	r0, #1290	; 0x50a
  7c:	3b0b3a0e 	blcc	2ce8bc <uartAppTaskStk+0x2b56cc>
  80:	0213490b 	andseq	r4, r3, #180224	; 0x2c000
  84:	0b000006 	bleq	a4 <_start-0x7f5c>
  88:	08030034 	stmdaeq	r3, {r2, r4, r5}
  8c:	0b3b0b3a 	bleq	ec2d7c <uartAppTaskStk+0xea9b8c>
  90:	06021349 	streq	r1, [r2], -r9, asr #6
  94:	340c0000 	strcc	r0, [ip], #-0
  98:	3a0e0300 	bcc	380ca0 <uartAppTaskStk+0x367ab0>
  9c:	490b3b0b 	stmdbmi	fp, {r0, r1, r3, r8, r9, fp, ip, sp}
  a0:	00060213 	andeq	r0, r6, r3, lsl r2
  a4:	00260d00 	eoreq	r0, r6, r0, lsl #26
  a8:	01000000 	mrseq	r0, (UNDEF: 0)
  ac:	0e250111 	mcreq	1, 1, r0, cr5, cr1, {0}
  b0:	0e030b13 	vmoveq.32	d3[0], r0
  b4:	01110e1b 	tsteq	r1, fp, lsl lr
  b8:	06100112 			; <UNDEFINED> instruction: 0x06100112
  bc:	24020000 	strcs	r0, [r2], #-0
  c0:	3e0b0b00 	vmlacc.f64	d0, d11, d0
  c4:	000e030b 	andeq	r0, lr, fp, lsl #6
  c8:	00240300 	eoreq	r0, r4, r0, lsl #6
  cc:	0b3e0b0b 	bleq	f82d00 <uartAppTaskStk+0xf69b10>
  d0:	00000803 	andeq	r0, r0, r3, lsl #16
  d4:	0b000f04 	bleq	3cec <_start-0x4314>
  d8:	0500000b 	streq	r0, [r0, #-11]
  dc:	0b0b000f 	bleq	2c0120 <uartAppTaskStk+0x2a6f30>
  e0:	00001349 	andeq	r1, r0, r9, asr #6
  e4:	03001606 	movweq	r1, #1542	; 0x606
  e8:	3b0b3a0e 	blcc	2ce928 <uartAppTaskStk+0x2b5738>
  ec:	0013490b 	andseq	r4, r3, fp, lsl #18
  f0:	012e0700 			; <UNDEFINED> instruction: 0x012e0700
  f4:	0e030c3f 	mcreq	12, 0, r0, cr3, cr15, {1}
  f8:	0b3b0b3a 	bleq	ec2de8 <uartAppTaskStk+0xea9bf8>
  fc:	13490c27 	movtne	r0, #39975	; 0x9c27
 100:	01120111 	tsteq	r2, r1, lsl r1
 104:	42970640 	addsmi	r0, r7, #64, 12	; 0x4000000
 108:	0013010c 	andseq	r0, r3, ip, lsl #2
 10c:	00050800 	andeq	r0, r5, r0, lsl #16
 110:	0b3a0803 	bleq	e82124 <uartAppTaskStk+0xe68f34>
 114:	13490b3b 	movtne	r0, #39739	; 0x9b3b
 118:	00000a02 	andeq	r0, r0, r2, lsl #20
 11c:	03000509 	movweq	r0, #1289	; 0x509
 120:	3b0b3a08 	blcc	2ce948 <uartAppTaskStk+0x2b5758>
 124:	0213490b 	andseq	r4, r3, #180224	; 0x2c000
 128:	0a000006 	beq	148 <_start-0x7eb8>
 12c:	08030034 	stmdaeq	r3, {r2, r4, r5}
 130:	0b3b0b3a 	bleq	ec2e20 <uartAppTaskStk+0xea9c30>
 134:	06021349 	streq	r1, [r2], -r9, asr #6
 138:	340b0000 	strcc	r0, [fp], #-0
 13c:	3a0e0300 	bcc	380d44 <uartAppTaskStk+0x367b54>
 140:	490b3b0b 	stmdbmi	fp, {r0, r1, r3, r8, r9, fp, ip, sp}
 144:	00060213 	andeq	r0, r6, r3, lsl r2
	...

Disassembly of section .debug_loc:

00000000 <.debug_loc>:
   0:	00000000 	andeq	r0, r0, r0
   4:	00000008 	andeq	r0, r0, r8
   8:	007d0002 	rsbseq	r0, sp, r2
   c:	00000008 	andeq	r0, r0, r8
  10:	000000f4 	strdeq	r0, [r0], -r4
  14:	107d0002 	rsbsne	r0, sp, r2
	...
  24:	00000074 	andeq	r0, r0, r4, ror r0
  28:	74510001 	ldrbvc	r0, [r1], #-1
  2c:	b8000000 	stmdalt	r0, {}	; <UNPREDICTABLE>
  30:	04000000 	streq	r0, [r0], #-0
  34:	5101f300 	mrspl	pc, SP_irq	; <UNPREDICTABLE>
  38:	0000b89f 	muleq	r0, pc, r8	; <UNPREDICTABLE>
  3c:	0000bc00 	andeq	fp, r0, r0, lsl #24
  40:	51000100 	mrspl	r0, (UNDEF: 16)
  44:	000000bc 	strheq	r0, [r0], -ip
  48:	000000e4 	andeq	r0, r0, r4, ror #1
  4c:	01f30004 	mvnseq	r0, r4
  50:	00e49f51 	rsceq	r9, r4, r1, asr pc
  54:	00ec0000 	rsceq	r0, ip, r0
  58:	00010000 	andeq	r0, r1, r0
  5c:	0000ec51 	andeq	lr, r0, r1, asr ip
  60:	0000f400 	andeq	pc, r0, r0, lsl #8
  64:	f3000400 	vshl.u8	d0, d0, d0
  68:	009f5101 	addseq	r5, pc, r1, lsl #2
	...
  74:	24000000 	strcs	r0, [r0], #-0
  78:	01000000 	mrseq	r0, (UNDEF: 0)
  7c:	00245200 	eoreq	r5, r4, r0, lsl #4
  80:	00400000 	subeq	r0, r0, r0
  84:	00010000 	andeq	r0, r1, r0
  88:	00004054 	andeq	r4, r0, r4, asr r0
  8c:	00005400 	andeq	r5, r0, r0, lsl #8
  90:	74000300 	strvc	r0, [r0], #-768	; 0xfffffd00
  94:	00549f10 	subseq	r9, r4, r0, lsl pc
  98:	005c0000 	subseq	r0, ip, r0
  9c:	00010000 	andeq	r0, r1, r0
  a0:	00007454 	andeq	r7, r0, r4, asr r4
  a4:	00007c00 	andeq	r7, r0, r0, lsl #24
  a8:	5c000100 	stfpls	f0, [r0], {-0}
  ac:	0000007c 	andeq	r0, r0, ip, ror r0
  b0:	00000088 	andeq	r0, r0, r8, lsl #1
  b4:	047c0003 	ldrbteq	r0, [ip], #-3
  b8:	0000889f 	muleq	r0, pc, r8	; <UNPREDICTABLE>
  bc:	00009000 	andeq	r9, r0, r0
  c0:	72000500 	andvc	r0, r0, #0, 10
  c4:	9f1a3f00 	svcls	0x001a3f00
  c8:	000000b8 	strheq	r0, [r0], -r8
  cc:	000000bc 	strheq	r0, [r0], -ip
  d0:	bc520001 	mrrclt	0, 0, r0, r2, cr1
  d4:	c4000000 	strgt	r0, [r0], #-0
  d8:	03000000 	movweq	r0, #0
  dc:	9f7f7200 	svcls	0x007f7200
  e0:	000000e4 	andeq	r0, r0, r4, ror #1
  e4:	000000ec 	andeq	r0, r0, ip, ror #1
  e8:	ec520001 	mrrc	0, 0, r0, r2, cr1
  ec:	f4000000 	vst4.8	{d0-d3}, [r0], r0
  f0:	01000000 	mrseq	r0, (UNDEF: 0)
  f4:	00005c00 	andeq	r5, r0, r0, lsl #24
  f8:	00000000 	andeq	r0, r0, r0
  fc:	00040000 	andeq	r0, r4, r0
 100:	00bc0000 	adcseq	r0, ip, r0
 104:	00010000 	andeq	r0, r1, r0
 108:	0000bc50 	andeq	fp, r0, r0, asr ip
 10c:	0000e400 	andeq	lr, r0, r0, lsl #8
 110:	53000100 	movwpl	r0, #256	; 0x100
 114:	000000e4 	andeq	r0, r0, r4, ror #1
 118:	000000f4 	strdeq	r0, [r0], -r4
 11c:	00500001 	subseq	r0, r0, r1
 120:	00000000 	andeq	r0, r0, r0
 124:	04000000 	streq	r0, [r0], #-0
 128:	74000000 	strvc	r0, [r0], #-0
 12c:	01000000 	mrseq	r0, (UNDEF: 0)
 130:	00745100 	rsbseq	r5, r4, r0, lsl #2
 134:	00b80000 	adcseq	r0, r8, r0
 138:	00040000 	andeq	r0, r4, r0
 13c:	9f5101f3 	svcls	0x005101f3
 140:	000000b8 	strheq	r0, [r0], -r8
 144:	000000c8 	andeq	r0, r0, r8, asr #1
 148:	c8510001 	ldmdagt	r1, {r0}^
 14c:	cc000000 	stcgt	0, cr0, [r0], {-0}
 150:	03000000 	movweq	r0, #0
 154:	9f017100 	svcls	0x00017100
 158:	000000e4 	andeq	r0, r0, r4, ror #1
 15c:	000000ec 	andeq	r0, r0, ip, ror #1
 160:	ec510001 	mrrc	0, 0, r0, r1, cr1
 164:	f4000000 	vst4.8	{d0-d3}, [r0], r0
 168:	04000000 	streq	r0, [r0], #-0
 16c:	5101f300 	mrspl	pc, SP_irq	; <UNPREDICTABLE>
 170:	0000009f 	muleq	r0, pc, r0	; <UNPREDICTABLE>
 174:	00000000 	andeq	r0, r0, r0
 178:	00002c00 	andeq	r2, r0, r0, lsl #24
 17c:	00003400 	andeq	r3, r0, r0, lsl #8
 180:	73000300 	movwvc	r0, #768	; 0x300
 184:	00349f04 	eorseq	r9, r4, r4, lsl #30
 188:	003c0000 	eorseq	r0, ip, r0
 18c:	00030000 	andeq	r0, r3, r0
 190:	3c9f0873 	ldccc	8, cr0, [pc], {115}	; 0x73
 194:	54000000 	strpl	r0, [r0], #-0
 198:	03000000 	movweq	r0, #0
 19c:	9f0c7300 	svcls	0x000c7300
 1a0:	00000054 	andeq	r0, r0, r4, asr r0
 1a4:	00000070 	andeq	r0, r0, r0, ror r0
 1a8:	74530001 	ldrbvc	r0, [r3], #-1
 1ac:	90000000 	andls	r0, r0, r0
 1b0:	01000000 	mrseq	r0, (UNDEF: 0)
 1b4:	00905300 	addseq	r5, r0, r0, lsl #6
 1b8:	00b80000 	adcseq	r0, r8, r0
 1bc:	00010000 	andeq	r0, r1, r0
 1c0:	0000ec54 	andeq	lr, r0, r4, asr ip
 1c4:	0000f400 	andeq	pc, r0, r0, lsl #8
 1c8:	53000100 	movwpl	r0, #256	; 0x100
	...
 1d4:	0000002c 	andeq	r0, r0, ip, lsr #32
 1d8:	00000034 	andeq	r0, r0, r4, lsr r0
 1dc:	047c0003 	ldrbteq	r0, [ip], #-3
 1e0:	0000349f 	muleq	r0, pc, r4	; <UNPREDICTABLE>
 1e4:	00003c00 	andeq	r3, r0, r0, lsl #24
 1e8:	7c000300 	stcvc	3, cr0, [r0], {-0}
 1ec:	003c9f08 	eorseq	r9, ip, r8, lsl #30
 1f0:	00500000 	subseq	r0, r0, r0
 1f4:	00030000 	andeq	r0, r3, r0
 1f8:	509f0c7c 	addspl	r0, pc, ip, ror ip	; <UNPREDICTABLE>
 1fc:	54000000 	strpl	r0, [r0], #-0
 200:	03000000 	movweq	r0, #0
 204:	9f7c7c00 	svcls	0x007c7c00
 208:	00000054 	andeq	r0, r0, r4, asr r0
 20c:	00000064 	andeq	r0, r0, r4, rrx
 210:	745c0001 	ldrbvc	r0, [ip], #-1
 214:	90000000 	andls	r0, r0, r0
 218:	01000000 	mrseq	r0, (UNDEF: 0)
 21c:	00ec5100 	rsceq	r5, ip, r0, lsl #2
 220:	00f40000 	rscseq	r0, r4, r0
 224:	00010000 	andeq	r0, r1, r0
 228:	00000051 	andeq	r0, r0, r1, asr r0
	...
 234:	00000800 	andeq	r0, r0, r0, lsl #16
 238:	7d000200 	sfmvc	f0, 4, [r0, #-0]
 23c:	00000800 	andeq	r0, r0, r0, lsl #16
 240:	0000f800 	andeq	pc, r0, r0, lsl #16
 244:	7d000200 	sfmvc	f0, 4, [r0, #-0]
 248:	00000008 	andeq	r0, r0, r8
	...
 254:	0000d400 	andeq	sp, r0, r0, lsl #8
 258:	51000100 	mrspl	r0, (UNDEF: 16)
 25c:	000000d4 	ldrdeq	r0, [r0], -r4
 260:	000000f0 	strdeq	r0, [r0], -r0	; <UNPREDICTABLE>
 264:	01f30004 	mvnseq	r0, r4
 268:	00f09f51 	rscseq	r9, r0, r1, asr pc
 26c:	00f80000 	rscseq	r0, r8, r0
 270:	00010000 	andeq	r0, r1, r0
 274:	00000051 	andeq	r0, r0, r1, asr r0
	...
 280:	00001800 	andeq	r1, r0, r0, lsl #16
 284:	52000100 	andpl	r0, r0, #0, 2
 288:	00000018 	andeq	r0, r0, r8, lsl r0
 28c:	00000064 	andeq	r0, r0, r4, rrx
 290:	80520001 	subshi	r0, r2, r1
 294:	9c000000 	stcls	0, cr0, [r0], {-0}
 298:	01000000 	mrseq	r0, (UNDEF: 0)
 29c:	009c5500 	addseq	r5, ip, r0, lsl #10
 2a0:	00a80000 	adceq	r0, r8, r0
 2a4:	00010000 	andeq	r0, r1, r0
 2a8:	0000a852 	andeq	sl, r0, r2, asr r8
 2ac:	0000ac00 	andeq	sl, r0, r0, lsl #24
 2b0:	53000100 	movwpl	r0, #256	; 0x100
 2b4:	000000ac 	andeq	r0, r0, ip, lsr #1
 2b8:	000000b4 	strheq	r0, [r0], -r4
 2bc:	04730003 	ldrbteq	r0, [r3], #-3
 2c0:	0000b49f 	muleq	r0, pc, r4	; <UNPREDICTABLE>
 2c4:	0000bc00 	andeq	fp, r0, r0, lsl #24
 2c8:	53000100 	movwpl	r0, #256	; 0x100
 2cc:	000000cc 	andeq	r0, r0, ip, asr #1
 2d0:	000000d8 	ldrdeq	r0, [r0], -r8
 2d4:	7f720003 	svcvc	0x00720003
 2d8:	0000f09f 	muleq	r0, pc, r0	; <UNPREDICTABLE>
 2dc:	0000f800 	andeq	pc, r0, r0, lsl #16
 2e0:	52000100 	andpl	r0, r0, #0, 2
	...
 2ec:	00000004 	andeq	r0, r0, r4
 2f0:	00000024 	andeq	r0, r0, r4, lsr #32
 2f4:	24500001 	ldrbcs	r0, [r0], #-1
 2f8:	34000000 	strcc	r0, [r0], #-0
 2fc:	01000000 	mrseq	r0, (UNDEF: 0)
 300:	00345300 	eorseq	r5, r4, r0, lsl #6
 304:	003c0000 	eorseq	r0, ip, r0
 308:	00030000 	andeq	r0, r3, r0
 30c:	3c9f7f73 	ldccc	15, cr7, [pc], {115}	; 0x73
 310:	5c000000 	stcpl	0, cr0, [r0], {-0}
 314:	01000000 	mrseq	r0, (UNDEF: 0)
 318:	005c5300 	subseq	r5, ip, r0, lsl #6
 31c:	009c0000 	addseq	r0, ip, r0
 320:	00010000 	andeq	r0, r1, r0
 324:	0000cc5c 	andeq	ip, r0, ip, asr ip
 328:	0000e800 	andeq	lr, r0, r0, lsl #16
 32c:	5c000100 	stfpls	f0, [r0], {-0}
 330:	000000f0 	strdeq	r0, [r0], -r0	; <UNPREDICTABLE>
 334:	000000f8 	strdeq	r0, [r0], -r8
 338:	00500001 	subseq	r0, r0, r1
 33c:	00000000 	andeq	r0, r0, r0
 340:	58000000 	stmdapl	r0, {}	; <UNPREDICTABLE>
 344:	cc000000 	stcgt	0, cr0, [r0], {-0}
 348:	03000000 	movweq	r0, #0
 34c:	9f200800 	svcls	0x00200800
	...
 358:	00000054 	andeq	r0, r0, r4, asr r0
 35c:	000000cc 	andeq	r0, r0, ip, asr #1
 360:	00540001 	subseq	r0, r4, r1
 364:	00000000 	andeq	r0, r0, r0
 368:	4c000000 	stcmi	0, cr0, [r0], {-0}
 36c:	5c000000 	stcpl	0, cr0, [r0], {-0}
 370:	01000000 	mrseq	r0, (UNDEF: 0)
 374:	005c5300 	subseq	r5, ip, r0, lsl #6
 378:	00640000 	rsbeq	r0, r4, r0
 37c:	00010000 	andeq	r0, r1, r0
 380:	0000705c 	andeq	r7, r0, ip, asr r0
 384:	00007400 	andeq	r7, r0, r0, lsl #8
 388:	73000300 	movwvc	r0, #768	; 0x300
 38c:	00749f04 	rsbseq	r9, r4, r4, lsl #30
 390:	00780000 	rsbseq	r0, r8, r0
 394:	00030000 	andeq	r0, r3, r0
 398:	789f0873 	ldmvc	pc, {r0, r1, r4, r5, r6, fp}	; <UNPREDICTABLE>
 39c:	80000000 	andhi	r0, r0, r0
 3a0:	03000000 	movweq	r0, #0
 3a4:	9f0c7300 	svcls	0x000c7300
 3a8:	00000080 	andeq	r0, r0, r0, lsl #1
 3ac:	00000088 	andeq	r0, r0, r8, lsl #1
 3b0:	9c530001 	mrrcls	0, 0, r0, r3, cr1
 3b4:	a8000000 	stmdage	r0, {}	; <UNPREDICTABLE>
 3b8:	01000000 	mrseq	r0, (UNDEF: 0)
 3bc:	00a85c00 	adceq	r5, r8, r0, lsl #24
 3c0:	00cc0000 	sbceq	r0, ip, r0
 3c4:	00010000 	andeq	r0, r1, r0
 3c8:	00000055 	andeq	r0, r0, r5, asr r0
 3cc:	00000000 	andeq	r0, r0, r0
 3d0:	00000400 	andeq	r0, r0, r0, lsl #8
 3d4:	00002000 	andeq	r2, r0, r0
 3d8:	71000600 	tstvc	r0, r0, lsl #12
 3dc:	1aff0800 	bne	fffc23e4 <_estack+0xf7fb23e4>
 3e0:	0000209f 	muleq	r0, pc, r0	; <UNPREDICTABLE>
 3e4:	00004000 	andeq	r4, r0, r0
 3e8:	54000100 	strpl	r0, [r0], #-256	; 0xffffff00
 3ec:	00000040 	andeq	r0, r0, r0, asr #32
 3f0:	000000d4 	ldrdeq	r0, [r0], -r4
 3f4:	00710006 	rsbseq	r0, r1, r6
 3f8:	9f1aff08 	svcls	0x001aff08
 3fc:	000000d4 	ldrdeq	r0, [r0], -r4
 400:	000000f0 	strdeq	r0, [r0], -r0	; <UNPREDICTABLE>
 404:	01f30007 	mvnseq	r0, r7
 408:	1aff0851 	bne	fffc2554 <_estack+0xf7fb2554>
 40c:	0000f09f 	muleq	r0, pc, r0	; <UNPREDICTABLE>
 410:	0000f800 	andeq	pc, r0, r0, lsl #16
 414:	71000600 	tstvc	r0, r0, lsl #12
 418:	1aff0800 	bne	fffc2420 <_estack+0xf7fb2420>
 41c:	0000009f 	muleq	r0, pc, r0	; <UNPREDICTABLE>
 420:	00000000 	andeq	r0, r0, r0
	...

Disassembly of section .debug_aranges:

00000000 <.debug_aranges>:
   0:	0000001c 	andeq	r0, r0, ip, lsl r0
   4:	00000002 	andeq	r0, r0, r2
   8:	00040000 	andeq	r0, r4, r0
   c:	00000000 	andeq	r0, r0, r0
  10:	00014610 	andeq	r4, r1, r0, lsl r6
  14:	000000f4 	strdeq	r0, [r0], -r4
	...
  20:	0000001c 	andeq	r0, r0, ip, lsl r0
  24:	01360002 	teqeq	r6, r2
  28:	00040000 	andeq	r0, r4, r0
  2c:	00000000 	andeq	r0, r0, r0
  30:	00014704 	andeq	r4, r1, r4, lsl #14
  34:	000000f8 	strdeq	r0, [r0], -r8
	...

Disassembly of section .debug_line:

00000000 <.debug_line>:
   0:	00000187 	andeq	r0, r0, r7, lsl #3
   4:	01030002 	tsteq	r3, r2
   8:	01020000 	mrseq	r0, (UNDEF: 2)
   c:	000d0efb 	strdeq	r0, [sp], -fp
  10:	01010101 	tsteq	r1, r1, lsl #2
  14:	01000000 	mrseq	r0, (UNDEF: 0)
  18:	2e010000 	cdpcs	0, 0, cr0, cr1, cr0, {0}
  1c:	2e2e2f2e 	cdpcs	15, 2, cr2, cr14, cr14, {1}
  20:	2f2e2e2f 	svccs	0x002e2e2f
  24:	2e2f2e2e 	cdpcs	14, 2, cr2, cr15, cr14, {1}
  28:	2e2e2f2e 	cdpcs	15, 2, cr2, cr14, cr14, {1}
  2c:	77656e2f 	strbvc	r6, [r5, -pc, lsr #28]!
  30:	2d62696c 	stclcs	9, cr6, [r2, #-432]!	; 0xfffffe50
  34:	30322e31 	eorscc	r2, r2, r1, lsr lr
  38:	6e2f302e 	cdpvs	0, 2, cr3, cr15, cr14, {1}
  3c:	696c7765 	stmdbvs	ip!, {r0, r2, r5, r6, r8, r9, sl, ip, sp, lr}^
  40:	696c2f62 	stmdbvs	ip!, {r1, r5, r6, r8, r9, sl, fp, sp}^
  44:	6d2f6362 	stcvs	3, cr6, [pc, #-392]!	; fffffec4 <_estack+0xf7fefec4>
  48:	69686361 	stmdbvs	r8!, {r0, r5, r6, r8, r9, sp, lr}^
  4c:	612f656e 			; <UNDEFINED> instruction: 0x612f656e
  50:	2e2f6d72 	mcrcs	13, 1, r6, cr15, cr2, {3}
  54:	2e2e2f2e 	cdpcs	15, 2, cr2, cr14, cr14, {1}
  58:	7274732f 	rsbsvc	r7, r4, #-1140850688	; 0xbc000000
  5c:	00676e69 	rsbeq	r6, r7, r9, ror #28
  60:	6d2f3a43 	vstmdbvs	pc!, {s6-s72}
  64:	2f737973 	svccs	0x00737973
  68:	2f302e31 	svccs	0x00302e31
  6c:	656d6f68 	strbvs	r6, [sp, #-3944]!	; 0xfffff098
  70:	6761792f 	strbvs	r7, [r1, -pc, lsr #18]!
  74:	6f747261 	svcvs	0x00747261
  78:	77656e2f 	strbvc	r6, [r5, -pc, lsr #28]!
  7c:	2d62696c 	stclcs	9, cr6, [r2, #-432]!	; 0xfffffe50
  80:	30322e31 	eorscc	r2, r2, r1, lsr lr
  84:	6e2f302e 	cdpvs	0, 2, cr3, cr15, cr14, {1}
  88:	696c7765 	stmdbvs	ip!, {r0, r2, r5, r6, r8, r9, sl, ip, sp, lr}^
  8c:	696c2f62 	stmdbvs	ip!, {r1, r5, r6, r8, r9, sl, fp, sp}^
  90:	692f6362 	stmdbvs	pc!, {r1, r5, r6, r8, r9, sp, lr}	; <UNPREDICTABLE>
  94:	756c636e 	strbvc	r6, [ip, #-878]!	; 0xfffffc92
  98:	63006564 	movwvs	r6, #1380	; 0x564
  9c:	736d5c3a 	cmnvc	sp, #14848	; 0x3a00
  a0:	315c7379 	cmpcc	ip, r9, ror r3
  a4:	685c302e 	ldmdavs	ip, {r1, r2, r3, r5, ip, sp}^
  a8:	5c656d6f 	stclpl	13, cr6, [r5], #-444	; 0xfffffe44
  ac:	61676179 	smcvs	30233	; 0x7619
  b0:	5c6f7472 	cfstrdpl	mvd7, [pc], #-456	; fffffef0 <_estack+0xf7fefef0>
  b4:	74736e69 	ldrbtvc	r6, [r3], #-3689	; 0xfffff197
  b8:	5c6c6c61 	stclpl	12, cr6, [ip], #-388	; 0xfffffe7c
  bc:	5c6e6962 	stclpl	9, cr6, [lr], #-392	; 0xfffffe78
  c0:	6c2f2e2e 	stcvs	14, cr2, [pc], #-184	; 10 <_start-0x7ff0>
  c4:	672f6269 	strvs	r6, [pc, -r9, ror #4]!
  c8:	612f6363 			; <UNDEFINED> instruction: 0x612f6363
  cc:	6e2d6d72 	mcrvs	13, 1, r6, cr13, cr2, {3}
  d0:	2d656e6f 	stclcs	14, cr6, [r5, #-444]!	; 0xfffffe44
  d4:	69626165 	stmdbvs	r2!, {r0, r2, r5, r6, r8, sp, lr}^
  d8:	372e342f 	strcc	r3, [lr, -pc, lsr #8]!
  dc:	692f322e 	stmdbvs	pc!, {r1, r2, r3, r5, r9, ip, sp}	; <UNPREDICTABLE>
  e0:	756c636e 	strbvc	r6, [ip, #-878]!	; 0xfffffc92
  e4:	00006564 	andeq	r6, r0, r4, ror #10
  e8:	636d656d 	cmnvs	sp, #457179136	; 0x1b400000
  ec:	632e7970 			; <UNDEFINED> instruction: 0x632e7970
  f0:	00000100 	andeq	r0, r0, r0, lsl #2
  f4:	69727473 	ldmdbvs	r2!, {r0, r1, r4, r5, r6, sl, ip, sp, lr}^
  f8:	682e676e 	stmdavs	lr!, {r1, r2, r3, r5, r6, r8, r9, sl, sp, lr}
  fc:	00000200 	andeq	r0, r0, r0, lsl #4
 100:	64647473 	strbtvs	r7, [r4], #-1139	; 0xfffffb8d
 104:	682e6665 	stmdavs	lr!, {r0, r2, r5, r6, r9, sl, sp, lr}
 108:	00000300 	andeq	r0, r0, r0, lsl #6
 10c:	02050000 	andeq	r0, r5, #0
 110:	00014610 	andeq	r4, r1, r0, lsl r6
 114:	03013803 	movweq	r3, #6147	; 0x1803
 118:	6b030115 	blvs	c0574 <uartAppTaskStk+0xa7384>
 11c:	2e15032e 	cdpcs	3, 1, cr0, cr5, cr14, {1}
 120:	01040200 	mrseq	r0, R12_usr
 124:	06662e06 	strbteq	r2, [r6], -r6, lsl #28
 128:	4c4b4b6e 	mcrrmi	11, 6, r4, fp, cr14
 12c:	0433292d 	ldrteq	r2, [r3], #-2349	; 0xfffff6d3
 130:	2e400302 	cdpcs	3, 4, cr0, cr0, cr2, {0}
 134:	3b030104 	blcc	c054c <uartAppTaskStk+0xa735c>
 138:	0002044a 	andeq	r0, r2, sl, asr #8
 13c:	03010402 	movweq	r0, #5122	; 0x1402
 140:	01042e45 	tsteq	r4, r5, asr #28
 144:	01040200 	mrseq	r0, R12_usr
 148:	8200c503 	andhi	ip, r0, #12582912	; 0xc00000
 14c:	bb030204 	bllt	c0964 <uartAppTaskStk+0xa7774>
 150:	0104827f 	tsteq	r4, pc, ror r2
 154:	9e00c003 	cdpls	0, 0, cr12, cr0, cr3, {0}
 158:	2c302c35 	ldccs	12, cr2, [r0], #-212	; 0xffffff2c
 15c:	bb030204 	bllt	c0974 <uartAppTaskStk+0xa7784>
 160:	01042e7f 	tsteq	r4, pc, ror lr
 164:	6600c703 	strvs	ip, [r0], -r3, lsl #14
 168:	00666703 	rsbeq	r6, r6, r3, lsl #14
 16c:	03010402 	movweq	r0, #5122	; 0x1402
 170:	02042e22 	andeq	r2, r4, #544	; 0x220
 174:	4a7fb003 	bmi	1fec188 <uartAppTaskStk+0x1fd2f98>
 178:	d1030104 	tstle	r3, r4, lsl #2
 17c:	4f494a00 	svcmi	0x00494a00
 180:	034a5903 	movteq	r5, #43267	; 0xa903
 184:	04024a17 	streq	r4, [r2], #-2583	; 0xfffff5e9
 188:	75010100 	strvc	r0, [r1, #-256]	; 0xffffff00
 18c:	02000001 	andeq	r0, r0, #1
 190:	0000ee00 	andeq	lr, r0, r0, lsl #28
 194:	fb010200 	blx	4099e <uartAppTaskStk+0x277ae>
 198:	01000d0e 	tsteq	r0, lr, lsl #26
 19c:	00010101 	andeq	r0, r1, r1, lsl #2
 1a0:	00010000 	andeq	r0, r1, r0
 1a4:	2e2e0100 	sufcse	f0, f6, f0
 1a8:	2f2e2e2f 	svccs	0x002e2e2f
 1ac:	2e2f2e2e 	cdpcs	14, 2, cr2, cr15, cr14, {1}
 1b0:	2e2e2f2e 	cdpcs	15, 2, cr2, cr14, cr14, {1}
 1b4:	77656e2f 	strbvc	r6, [r5, -pc, lsr #28]!
 1b8:	2d62696c 	stclcs	9, cr6, [r2, #-432]!	; 0xfffffe50
 1bc:	30322e31 	eorscc	r2, r2, r1, lsr lr
 1c0:	6e2f302e 	cdpvs	0, 2, cr3, cr15, cr14, {1}
 1c4:	696c7765 	stmdbvs	ip!, {r0, r2, r5, r6, r8, r9, sl, ip, sp, lr}^
 1c8:	696c2f62 	stmdbvs	ip!, {r1, r5, r6, r8, r9, sl, fp, sp}^
 1cc:	732f6362 			; <UNDEFINED> instruction: 0x732f6362
 1d0:	6e697274 	mcrvs	2, 3, r7, cr9, cr4, {3}
 1d4:	3a430067 	bcc	10c0378 <uartAppTaskStk+0x10a7188>
 1d8:	79736d2f 	ldmdbvc	r3!, {r0, r1, r2, r3, r5, r8, sl, fp, sp, lr}^
 1dc:	2e312f73 	mrccs	15, 1, r2, cr1, cr3, {3}
 1e0:	6f682f30 	svcvs	0x00682f30
 1e4:	792f656d 	stmdbvc	pc!, {r0, r2, r3, r5, r6, r8, sl, sp, lr}	; <UNPREDICTABLE>
 1e8:	72616761 	rsbvc	r6, r1, #25427968	; 0x1840000
 1ec:	6e2f6f74 	mcrvs	15, 1, r6, cr15, cr4, {3}
 1f0:	696c7765 	stmdbvs	ip!, {r0, r2, r5, r6, r8, r9, sl, ip, sp, lr}^
 1f4:	2e312d62 	cdpcs	13, 3, cr2, cr1, cr2, {3}
 1f8:	302e3032 	eorcc	r3, lr, r2, lsr r0
 1fc:	77656e2f 	strbvc	r6, [r5, -pc, lsr #28]!
 200:	2f62696c 	svccs	0x0062696c
 204:	6362696c 	cmnvs	r2, #108, 18	; 0x1b0000
 208:	636e692f 	cmnvs	lr, #770048	; 0xbc000
 20c:	6564756c 	strbvs	r7, [r4, #-1388]!	; 0xfffffa94
 210:	5c3a6300 	ldcpl	3, cr6, [sl], #-0
 214:	7379736d 	cmnvc	r9, #-1275068415	; 0xb4000001
 218:	302e315c 	eorcc	r3, lr, ip, asr r1
 21c:	6d6f685c 	stclvs	8, cr6, [pc, #-368]!	; b4 <_start-0x7f4c>
 220:	61795c65 	cmnvs	r9, r5, ror #24
 224:	74726167 	ldrbtvc	r6, [r2], #-359	; 0xfffffe99
 228:	6e695c6f 	cdpvs	12, 6, cr5, cr9, cr15, {3}
 22c:	6c617473 	cfstrdvs	mvd7, [r1], #-460	; 0xfffffe34
 230:	69625c6c 	stmdbvs	r2!, {r2, r3, r5, r6, sl, fp, ip, lr}^
 234:	2e2e5c6e 	cdpcs	12, 2, cr5, cr14, cr14, {3}
 238:	62696c2f 	rsbvs	r6, r9, #12032	; 0x2f00
 23c:	6363672f 	cmnvs	r3, #12320768	; 0xbc0000
 240:	6d72612f 	ldfvse	f6, [r2, #-188]!	; 0xffffff44
 244:	6e6f6e2d 	cdpvs	14, 6, cr6, cr15, cr13, {1}
 248:	61652d65 	cmnvs	r5, r5, ror #26
 24c:	342f6962 	strtcc	r6, [pc], #-2402	; 254 <_start-0x7dac>
 250:	322e372e 	eorcc	r3, lr, #12058624	; 0xb80000
 254:	636e692f 	cmnvs	lr, #770048	; 0xbc000
 258:	6564756c 	strbvs	r7, [r4, #-1388]!	; 0xfffffa94
 25c:	656d0000 	strbvs	r0, [sp, #-0]!
 260:	7465736d 	strbtvc	r7, [r5], #-877	; 0xfffffc93
 264:	0100632e 	tsteq	r0, lr, lsr #6
 268:	74730000 	ldrbtvc	r0, [r3], #-0
 26c:	676e6972 			; <UNDEFINED> instruction: 0x676e6972
 270:	0200682e 	andeq	r6, r0, #3014656	; 0x2e0000
 274:	74730000 	ldrbtvc	r0, [r3], #-0
 278:	66656464 	strbtvs	r6, [r5], -r4, ror #8
 27c:	0300682e 	movweq	r6, #2094	; 0x82e
 280:	00000000 	andeq	r0, r0, r0
 284:	47040205 	strmi	r0, [r4, -r5, lsl #4]
 288:	2e030001 	cdpcs	0, 0, cr0, cr3, cr1, {0}
 28c:	010a0301 	tsteq	sl, r1, lsl #6
 290:	032e7603 			; <UNDEFINED> instruction: 0x032e7603
 294:	f34c2e0a 	vcge.f32	d18, d12, d10
 298:	362b312b 	strtcc	r3, [fp], -fp, lsr #2
 29c:	034a7503 	movteq	r7, #42243	; 0xa503
 2a0:	7a032e18 	bvc	cbb08 <uartAppTaskStk+0xb2918>
 2a4:	6c332f2e 	ldcvs	15, cr2, [r3], #-184	; 0xffffff48
 2a8:	302e7a03 	eorcc	r7, lr, r3, lsl #20
 2ac:	042f2f2f 	strteq	r2, [pc], #-3887	; 2b4 <_start-0x7d4c>
 2b0:	2e480302 	cdpcs	3, 4, cr0, cr8, cr2, {0}
 2b4:	33030104 	movwcc	r0, #12548	; 0x3104
 2b8:	0002042e 	andeq	r0, r2, lr, lsr #8
 2bc:	03010402 	movweq	r0, #5122	; 0x1402
 2c0:	01042e4d 	tsteq	r4, sp, asr #28
 2c4:	01040200 	mrseq	r0, R12_usr
 2c8:	03823c03 	orreq	r3, r2, #768	; 0x300
 2cc:	0c036677 	stceq	6, cr6, [r3], {119}	; 0x77
 2d0:	2c302b4a 	ldccs	11, cr2, [r0], #-296	; 0xfffffed8
 2d4:	44030204 	strmi	r0, [r3], #-516	; 0xfffffdfc
 2d8:	0301042e 	movweq	r0, #5166	; 0x142e
 2dc:	0200823e 	andeq	r8, r0, #-536870909	; 0xe0000003
 2e0:	09030104 	stmdbeq	r3, {r2, r8}
 2e4:	0002042e 	andeq	r0, r2, lr, lsr #8
 2e8:	03010402 	movweq	r0, #5122	; 0x1402
 2ec:	044a7fb9 	strbeq	r7, [sl], #-4025	; 0xfffff047
 2f0:	04020001 	streq	r0, [r2], #-1
 2f4:	00c70301 	sbceq	r0, r7, r1, lsl #6
 2f8:	4e2d2f2e 	cdpmi	15, 2, cr2, cr13, cr14, {1}
 2fc:	024a5303 	subeq	r5, sl, #201326592	; 0xc000000
 300:	01010004 	tsteq	r1, r4

Disassembly of section .debug_str:

00000000 <.debug_str>:
   0:	676e6f6c 	strbvs	r6, [lr, -ip, ror #30]!
   4:	6e6f6c20 	cdpvs	12, 6, cr6, cr15, cr0, {1}
   8:	6e692067 	cdpvs	0, 6, cr2, cr9, cr7, {3}
   c:	6c610074 	stclvs	0, cr0, [r1], #-464	; 0xfffffe30
  10:	656e6769 	strbvs	r6, [lr, #-1897]!	; 0xfffff897
  14:	73645f64 	cmnvc	r4, #100, 30	; 0x190
  18:	69730074 	ldmdbvs	r3!, {r2, r4, r5, r6}^
  1c:	745f657a 	ldrbvc	r6, [pc], #-1402	; 24 <_start-0x7fdc>
  20:	554e4700 	strbpl	r4, [lr, #-1792]	; 0xfffff900
  24:	34204320 	strtcc	r4, [r0], #-800	; 0xfffffce0
  28:	322e372e 	eorcc	r3, lr, #12058624	; 0xb80000
  2c:	63727300 	cmnvs	r2, #0, 6
  30:	6f6c0030 	svcvs	0x006c0030
  34:	6c20676e 	stcvs	7, cr6, [r0], #-440	; 0xfffffe48
  38:	20676e6f 	rsbcs	r6, r7, pc, ror #28
  3c:	69736e75 	ldmdbvs	r3!, {r0, r2, r4, r5, r6, r9, sl, fp, sp, lr}^
  40:	64656e67 	strbtvs	r6, [r5], #-3687	; 0xfffff199
  44:	746e6920 	strbtvc	r6, [lr], #-2336	; 0xfffff6e0
  48:	74736400 	ldrbtvc	r6, [r3], #-1024	; 0xfffffc00
  4c:	6e750030 	mrcvs	0, 3, r0, cr5, cr0, {1}
  50:	6e676973 	mcrvs	9, 3, r6, cr7, cr3, {3}
  54:	63206465 			; <UNDEFINED> instruction: 0x63206465
  58:	00726168 	rsbseq	r6, r2, r8, ror #2
  5c:	67696c61 	strbvs	r6, [r9, -r1, ror #24]!
  60:	5f64656e 	svcpl	0x0064656e
  64:	00637273 	rsbeq	r7, r3, r3, ror r2
  68:	636d656d 	cmnvs	sp, #457179136	; 0x1b400000
  6c:	43007970 	movwmi	r7, #2416	; 0x970
  70:	736d5c3a 	cmnvc	sp, #14848	; 0x3a00
  74:	315c7379 	cmpcc	ip, r9, ror r3
  78:	685c302e 	ldmdavs	ip, {r1, r2, r3, r5, ip, sp}^
  7c:	5c656d6f 	stclpl	13, cr6, [r5], #-444	; 0xfffffe44
  80:	61676179 	smcvs	30233	; 0x7619
  84:	5c6f7472 	cfstrdpl	mvd7, [pc], #-456	; fffffec4 <_estack+0xf7fefec4>
  88:	6c77656e 	cfldr64vs	mvdx6, [r7], #-440	; 0xfffffe48
  8c:	622d6269 	eorvs	r6, sp, #-1879048186	; 0x90000006
  90:	646c6975 	strbtvs	r6, [ip], #-2421	; 0xfffff68b
  94:	6d72615c 	ldfvse	f6, [r2, #-368]!	; 0xfffffe90
  98:	6e6f6e2d 	cdpvs	14, 6, cr6, cr15, cr13, {1}
  9c:	61652d65 	cmnvs	r5, r5, ror #26
  a0:	6e5c6962 	cdpvs	9, 5, cr6, cr12, cr2, {3}
  a4:	696c7765 	stmdbvs	ip!, {r0, r2, r5, r6, r8, r9, sl, ip, sp, lr}^
  a8:	696c5c62 	stmdbvs	ip!, {r1, r5, r6, sl, fp, ip, lr}^
  ac:	6d5c6362 	ldclvs	3, cr6, [ip, #-392]	; 0xfffffe78
  b0:	69686361 	stmdbvs	r8!, {r0, r5, r6, r8, r9, sp, lr}^
  b4:	615c656e 	cmpvs	ip, lr, ror #10
  b8:	73006d72 	movwvc	r6, #3442	; 0xd72
  bc:	74726f68 	ldrbtvc	r6, [r2], #-3944	; 0xfffff098
  c0:	736e7520 	cmnvc	lr, #32, 10	; 0x8000000
  c4:	656e6769 	strbvs	r6, [lr, #-1897]!	; 0xfffff897
  c8:	6e692064 	cdpvs	0, 6, cr2, cr9, cr4, {3}
  cc:	2e2e0074 	mcrcs	0, 1, r0, cr14, cr4, {3}
  d0:	2f2e2e2f 	svccs	0x002e2e2f
  d4:	2e2f2e2e 	cdpcs	14, 2, cr2, cr15, cr14, {1}
  d8:	2e2e2f2e 	cdpcs	15, 2, cr2, cr14, cr14, {1}
  dc:	2f2e2e2f 	svccs	0x002e2e2f
  e0:	6c77656e 	cfldr64vs	mvdx6, [r7], #-440	; 0xfffffe48
  e4:	312d6269 			; <UNDEFINED> instruction: 0x312d6269
  e8:	2e30322e 	cdpcs	2, 3, cr3, cr0, cr14, {1}
  ec:	656e2f30 	strbvs	r2, [lr, #-3888]!	; 0xfffff0d0
  f0:	62696c77 	rsbvs	r6, r9, #30464	; 0x7700
  f4:	62696c2f 	rsbvs	r6, r9, #12032	; 0x2f00
  f8:	616d2f63 	cmnvs	sp, r3, ror #30
  fc:	6e696863 	cdpvs	8, 6, cr6, cr9, cr3, {3}
 100:	72612f65 	rsbvc	r2, r1, #404	; 0x194
 104:	656d2f6d 	strbvs	r2, [sp, #-3949]!	; 0xfffff093
 108:	7970636d 	ldmdbvc	r0!, {r0, r2, r3, r5, r6, r8, r9, sp, lr}^
 10c:	7574732d 	ldrbvc	r7, [r4, #-813]!	; 0xfffffcd3
 110:	00632e62 	rsbeq	r2, r3, r2, ror #28
 114:	306e656c 	rsbcc	r6, lr, ip, ror #10
 118:	6f687300 	svcvs	0x00687300
 11c:	69207472 	stmdbvs	r0!, {r1, r4, r5, r6, sl, ip, sp, lr}
 120:	7300746e 	movwvc	r7, #1134	; 0x46e
 124:	74657a69 	strbtvc	r7, [r5], #-2665	; 0xfffff597
 128:	00657079 	rsbeq	r7, r5, r9, ror r0
 12c:	6d5c3a43 	vldrvs	s7, [ip, #-268]	; 0xfffffef4
 130:	5c737973 	ldclpl	9, cr7, [r3], #-460	; 0xfffffe34
 134:	5c302e31 	ldcpl	14, cr2, [r0], #-196	; 0xffffff3c
 138:	656d6f68 	strbvs	r6, [sp, #-3944]!	; 0xfffff098
 13c:	6761795c 			; <UNDEFINED> instruction: 0x6761795c
 140:	6f747261 	svcvs	0x00747261
 144:	77656e5c 			; <UNDEFINED> instruction: 0x77656e5c
 148:	2d62696c 	stclcs	9, cr6, [r2, #-432]!	; 0xfffffe50
 14c:	6c697562 	cfstr64vs	mvdx7, [r9], #-392	; 0xfffffe78
 150:	72615c64 	rsbvc	r5, r1, #100, 24	; 0x6400
 154:	6f6e2d6d 	svcvs	0x006e2d6d
 158:	652d656e 	strvs	r6, [sp, #-1390]!	; 0xfffffa92
 15c:	5c696261 	sfmpl	f6, 2, [r9], #-388	; 0xfffffe7c
 160:	6c77656e 	cfldr64vs	mvdx6, [r7], #-440	; 0xfffffe48
 164:	6c5c6269 	lfmvs	f6, 2, [ip], {105}	; 0x69
 168:	5c636269 	sfmpl	f6, 2, [r3], #-420	; 0xfffffe5c
 16c:	69727473 	ldmdbvs	r2!, {r0, r1, r4, r5, r6, sl, ip, sp, lr}^
 170:	6100676e 	tstvs	r0, lr, ror #14
 174:	6e67696c 	cdpvs	9, 6, cr6, cr7, cr12, {3}
 178:	615f6465 	cmpvs	pc, r5, ror #8
 17c:	00726464 	rsbseq	r6, r2, r4, ror #8
 180:	2e2f2e2e 	cdpcs	14, 2, cr2, cr15, cr14, {1}
 184:	2e2e2f2e 	cdpcs	15, 2, cr2, cr14, cr14, {1}
 188:	2f2e2e2f 	svccs	0x002e2e2f
 18c:	6e2f2e2e 	cdpvs	14, 2, cr2, cr15, cr14, {1}
 190:	696c7765 	stmdbvs	ip!, {r0, r2, r5, r6, r8, r9, sl, ip, sp, lr}^
 194:	2e312d62 	cdpcs	13, 3, cr2, cr1, cr2, {3}
 198:	302e3032 	eorcc	r3, lr, r2, lsr r0
 19c:	77656e2f 	strbvc	r6, [r5, -pc, lsr #28]!
 1a0:	2f62696c 	svccs	0x0062696c
 1a4:	6362696c 	cmnvs	r2, #108, 18	; 0x1b0000
 1a8:	7274732f 	rsbsvc	r7, r4, #-1140850688	; 0xbc000000
 1ac:	2f676e69 	svccs	0x00676e69
 1b0:	736d656d 	cmnvc	sp, #457179136	; 0x1b400000
 1b4:	632e7465 			; <UNDEFINED> instruction: 0x632e7465
 1b8:	6d656d00 	stclvs	13, cr6, [r5, #-0]
 1bc:	00746573 	rsbseq	r6, r4, r3, ror r5
 1c0:	66667562 	strbtvs	r7, [r6], -r2, ror #10
 1c4:	Address 0x00000000000001c4 is out of bounds.


Disassembly of section .debug_frame:

00000000 <.debug_frame>:
   0:	0000000c 	andeq	r0, r0, ip
   4:	ffffffff 			; <UNDEFINED> instruction: 0xffffffff
   8:	7c020001 	stcvc	0, cr0, [r2], {1}
   c:	000d0c0e 	andeq	r0, sp, lr, lsl #24
  10:	00000018 	andeq	r0, r0, r8, lsl r0
  14:	00000000 	andeq	r0, r0, r0
  18:	00014610 	andeq	r4, r1, r0, lsl r6
  1c:	000000f4 	strdeq	r0, [r0], -r4
  20:	84100e44 	ldrhi	r0, [r0], #-3652	; 0xfffff1bc
  24:	86038504 	strhi	r8, [r3], -r4, lsl #10
  28:	00018702 	andeq	r8, r1, r2, lsl #14
  2c:	0000000c 	andeq	r0, r0, ip
  30:	ffffffff 			; <UNDEFINED> instruction: 0xffffffff
  34:	7c020001 	stcvc	0, cr0, [r2], {1}
  38:	000d0c0e 	andeq	r0, sp, lr, lsl #24
  3c:	00000014 	andeq	r0, r0, r4, lsl r0
  40:	0000002c 	andeq	r0, r0, ip, lsr #32
  44:	00014704 	andeq	r4, r1, r4, lsl #14
  48:	000000f8 	strdeq	r0, [r0], -r8
  4c:	84080e44 	strhi	r0, [r8], #-3652	; 0xfffff1bc
  50:	00018502 	andeq	r8, r1, r2, lsl #10
